(dp0
S'2717'
p1
ccopy_reg
_reconstructor
p2
(cworkitem
Workitem
p3
c__builtin__
object
p4
Ntp5
Rp6
(dp7
S'itemId'
p8
I2717
sS'start_time'
p9
F1459477784.281
sS'worker_id'
p10
S'0'
p11
sS'output_path'
p12
VE:/FeatureExtractionOutputs/pt000064.tif
p13
sS'end_time'
p14
NsS'path'
p15
VE:/testinput/pt000064.laz
p16
sS'error_msg'
p17
cexceptions
KeyError
p18
sbsS'3498'
p19
g2
(g3
g4
Ntp20
Rp21
(dp22
g8
I3498
sg9
F1465462815.329
sg10
S'0'
p23
sg12
VE:/FeatureExtractionOutputs/pt000021.tif
p24
sg14
F1465462817.024
sg15
VE:/testinput/pt000021.laz
p25
sg17
S'Error'
p26
sbsS'3496'
p27
g2
(g3
g4
Ntp28
Rp29
(dp30
g8
I3496
sg9
F1465462680.597
sg10
S'0'
p31
sg12
VE:/FeatureExtractionOutputs/pt000127.tif
p32
sg14
F1465462691.845
sg15
VE:/testinput/pt000127.laz
p33
sg17
S'Error'
p34
sbsS'3497'
p35
g2
(g3
g4
Ntp36
Rp37
(dp38
g8
I3497
sg9
F1465462798.575
sg10
S'0'
p39
sg12
VE:/FeatureExtractionOutputs/pt000011.tif
p40
sg14
F1465462809.796
sg15
VE:/testinput/pt000011.laz
p41
sg17
S'Error'
p42
sbsS'3494'
p43
g2
(g3
g4
Ntp44
Rp45
(dp46
g8
I3494
sg9
F1465462647.138
sg10
S'0'
p47
sg12
VE:/FeatureExtractionOutputs/pt000069.tif
p48
sg14
F1465462658.299
sg15
VE:/testinput/pt000069.laz
p49
sg17
S'Error'
p50
sbsS'3495'
p51
g2
(g3
g4
Ntp52
Rp53
(dp54
g8
I3495
sg9
F1465462663.858
sg10
S'0'
p55
sg12
VE:/FeatureExtractionOutputs/pt000122.tif
p56
sg14
F1465462675.043
sg15
VE:/testinput/pt000122.laz
p57
sg17
S'Error'
p58
sbsS'3492'
p59
g2
(g3
g4
Ntp60
Rp61
(dp62
g8
I3492
sg9
F1465462632.883
sg10
S'0'
p63
sg12
VE:/FeatureExtractionOutputs/pt000061.tif
p64
sg14
F1465462634.567
sg15
VE:/testinput/pt000061.laz
p65
sg17
S'Error'
p66
sbsS'3493'
p67
g2
(g3
g4
Ntp68
Rp69
(dp70
g8
I3493
sg9
F1465462640.122
sg10
S'0'
p71
sg12
VE:/FeatureExtractionOutputs/pt000064.tif
p72
sg14
F1465462641.579
sg15
VE:/testinput/pt000064.laz
p73
sg17
S'Error'
p74
sbsS'3490'
p75
g2
(g3
g4
Ntp76
Rp77
(dp78
g8
I3490
sg9
F1465462618.81
sg10
S'0'
p79
sg12
VE:/FeatureExtractionOutputs/pt000022.tif
p80
sg14
F1465462620.222
sg15
VE:/testinput/pt000022.laz
p81
sg17
S'Error'
p82
sbsS'3491'
p83
g2
(g3
g4
Ntp84
Rp85
(dp86
g8
I3491
sg9
F1465462625.761
sg10
S'0'
p87
sg12
VE:/FeatureExtractionOutputs/pt000023.tif
p88
sg14
F1465462627.327
sg15
VE:/testinput/pt000023.laz
p89
sg17
S'Error'
p90
sbsS'3049'
p91
g2
(g3
g4
Ntp92
Rp93
(dp94
g8
I3049
sg9
F1459945288.04
sg10
S'1'
p95
sg12
VE:\u005cFeatureExtraction_Pagsanjan\u005cOutputs_Laguna_Blk18H/pt000016.tif
p96
sg14
F1459945580.525
sg15
VE:\u005cFeatureExtraction_Pagsanjan\u005cLAZ_Laguna_Blk18H/pt000016.laz
p97
sg17
S'Error'
p98
sbsS'3658'
p99
g2
(g3
g4
Ntp100
Rp101
(dp102
g8
I3658
sg9
F1468825019.962
sg10
S'0'
p103
sg12
VE:/FeatureExtractionOutputs/pt000113.tif
p104
sg14
F1468825308.251
sg15
VE:/testinput/pt000113.laz
p105
sg17
S'Error'
p106
sbsS'3659'
p107
g2
(g3
g4
Ntp108
Rp109
(dp110
g8
I3659
sg9
F1468826250.659
sg10
S'0'
p111
sg12
VE:/FeatureExtractionOutputs/pt000113.tif
p112
sg14
F1468826576.405
sg15
VE:/testinput/pt000113.laz
p113
sg17
S'Error'
p114
sbsS'3327'
p115
g2
(g3
g4
Ntp116
Rp117
(dp118
g8
I3327
sg9
F1462855125.995
sg10
S'1'
p119
sg12
VE:/FeatureExtractionOutputsTry/pt000192.tif
p120
sg14
F1462855127.352
sg15
VE:\u005cFeatureExtraction_Sumagui\u005cLAZ_Mindoro_Blk28E/pt000192.laz
p121
sg17
S'Error'
p122
sbsS'3654'
p123
g2
(g3
g4
Ntp124
Rp125
(dp126
g8
I3654
sg9
F1468824154.185
sg10
S'0'
p127
sg12
VE:/FeatureExtractionOutputs/pt000069.tif
p128
sg14
F1468824168.891
sg15
VE:/testinput/pt000069.laz
p129
sg17
S'Error'
p130
sbsS'3656'
p131
g2
(g3
g4
Ntp132
Rp133
(dp134
g8
I3656
sg9
F1468824218.581
sg10
S'0'
p135
sg12
VE:/FeatureExtractionOutputs/pt000015.tif
p136
sg14
F1468824380.412
sg15
VE:/testinput/pt000015.laz
p137
sg17
S'Error'
p138
sbsS'3657'
p139
g2
(g3
g4
Ntp140
Rp141
(dp142
g8
I3657
sg9
F1468824523.646
sg10
S'0'
p143
sg12
VE:/FeatureExtractionOutputs/pt000113.tif
p144
sg14
F1468824816.747
sg15
VE:/testinput/pt000113.laz
p145
sg17
S'Error'
p146
sbsS'3257'
p147
g2
(g3
g4
Ntp148
Rp149
(dp150
g8
I3257
sg9
F1460374816.911
sg10
S'2'
p151
sg12
VE:\u005cFeatureExtraction_Bansud\u005cOutputs_Mindoro_Blk28Ds/pt000167.tif
p152
sg14
F1460374820.483
sg15
VE:\u005cFeatureExtraction_Bansud\u005cLAZ_Mindoro_Blk28Ds/pt000167.laz
p153
sg17
S'Error'
p154
sbsS'3489'
p155
g2
(g3
g4
Ntp156
Rp157
(dp158
g8
I3489
sg9
F1465462611.675
sg10
S'0'
p159
sg12
VE:/FeatureExtractionOutputs/pt000021.tif
p160
sg14
F1465462613.27
sg15
VE:/testinput/pt000021.laz
p161
sg17
S'Error'
p162
sbsS'3488'
p163
g2
(g3
g4
Ntp164
Rp165
(dp166
g8
I3488
sg9
F1465462595.106
sg10
S'0'
p167
sg12
VE:/FeatureExtractionOutputs/pt000011.tif
p168
sg14
F1465462606.124
sg15
VE:/testinput/pt000011.laz
p169
sg17
S'Error'
p170
sbsS'3481'
p171
g2
(g3
g4
Ntp172
Rp173
(dp174
g8
I3481
sg9
F1465462434.512
sg10
S'0'
p175
sg12
VE:/FeatureExtractionOutputs/pt000022.tif
p176
sg14
F1465462436.006
sg15
VE:/testinput/pt000022.laz
p177
sg17
S'Error'
p178
sbsS'3480'
p179
g2
(g3
g4
Ntp180
Rp181
(dp182
g8
I3480
sg9
F1465462427.388
sg10
S'0'
p183
sg12
VE:/FeatureExtractionOutputs/pt000021.tif
p184
sg14
F1465462428.956
sg15
VE:/testinput/pt000021.laz
p185
sg17
S'Error'
p186
sbsS'3483'
p187
g2
(g3
g4
Ntp188
Rp189
(dp190
g8
I3483
sg9
F1465462448.51
sg10
S'0'
p191
sg12
VE:/FeatureExtractionOutputs/pt000061.tif
p192
sg14
F1465462450.028
sg15
VE:/testinput/pt000061.laz
p193
sg17
S'Error'
p194
sbsS'3482'
p195
g2
(g3
g4
Ntp196
Rp197
(dp198
g8
I3482
sg9
F1465462441.533
sg10
S'0'
p199
sg12
VE:/FeatureExtractionOutputs/pt000023.tif
p200
sg14
F1465462442.974
sg15
VE:/testinput/pt000023.laz
p201
sg17
S'Error'
p202
sbsS'2855'
p203
g2
(g3
g4
Ntp204
Rp205
(dp206
g8
I2855
sg9
F1459821323.847
sg10
S'0'
p207
sg12
VE:\u005cFeatureExtraction_Agsalin\u005cOutputs_Mindoro_Blk28Bs/pt000090.tif
p208
sg14
F1459821326.791
sg15
VE:/FeatureExtraction_Agsalin/LAZ_Mindoro_Blk28Bs/pt000090.laz
p209
sg17
S'Error'
p210
sbsS'3484'
p211
g2
(g3
g4
Ntp212
Rp213
(dp214
g8
I3484
sg9
F1465462455.565
sg10
S'0'
p215
sg12
VE:/FeatureExtractionOutputs/pt000064.tif
p216
sg14
F1465462457.028
sg15
VE:/testinput/pt000064.laz
p217
sg17
S'Error'
p218
sbsS'3487'
p219
g2
(g3
g4
Ntp220
Rp221
(dp222
g8
I3487
sg9
F1465462495.836
sg10
S'0'
p223
sg12
VE:/FeatureExtractionOutputs/pt000127.tif
p224
sg14
F1465462506.955
sg15
VE:/testinput/pt000127.laz
p225
sg17
S'Error'
p226
sbsS'3486'
p227
g2
(g3
g4
Ntp228
Rp229
(dp230
g8
I3486
sg9
F1465462479.194
sg10
S'0'
p231
sg12
VE:/FeatureExtractionOutputs/pt000122.tif
p232
sg14
F1465462490.273
sg15
VE:/testinput/pt000122.laz
p233
sg17
S'Error'
p234
sbsS'3333'
p235
g2
(g3
g4
Ntp236
Rp237
(dp238
g8
I3333
sg9
F1465267790.429
sg10
S'1'
p239
sg12
VE:/Mindoro Blk29N Copy Las/Output/pt000003.tif
p240
sg14
F1465267796.435
sg15
VE:/Mindoro Blk29N Copy Las/LAZ/pt000003.laz
p241
sg17
S'Error'
p242
sbsS'3332'
p243
g2
(g3
g4
Ntp244
Rp245
(dp246
g8
I3332
sg9
F1465267784.859
sg10
S'2'
p247
sg12
VE:/Mindoro Blk29N Copy Las/Output/pt000002.tif
p248
sg14
F1465267789.083
sg15
VE:/Mindoro Blk29N Copy Las/LAZ/pt000002.laz
p249
sg17
S'Error'
p250
sbsS'3331'
p251
g2
(g3
g4
Ntp252
Rp253
(dp254
g8
I3331
sg9
F1465267783.809
sg10
S'3'
p255
sg12
VE:/Mindoro Blk29N Copy Las/Output/pt000001.tif
p256
sg14
F1465267800.98
sg15
VE:/Mindoro Blk29N Copy Las/LAZ/pt000001.laz
p257
sg17
S'Error'
p258
sbsS'3335'
p259
g2
(g3
g4
Ntp260
Rp261
(dp262
g8
I3335
sg9
F1465267804.949
sg10
S'2'
p263
sg12
VE:/Mindoro Blk29N Copy Las/Output/pt000005.tif
p264
sg14
F1465267822.306
sg15
VE:/Mindoro Blk29N Copy Las/LAZ/pt000005.laz
p265
sg17
S'Error'
p266
sbsS'3334'
p267
g2
(g3
g4
Ntp268
Rp269
(dp270
g8
I3334
sg9
F1465267789.541
sg10
S'0'
p271
sg12
VE:/Mindoro Blk29N Copy Las/Output/pt000004.tif
p272
sg14
F1465267856.051
sg15
VE:/Mindoro Blk29N Copy Las/LAZ/pt000004.laz
p273
sg17
S'Error'
p274
sbsS'3408'
p275
g2
(g3
g4
Ntp276
Rp277
(dp278
g8
I3408
sg9
F1465287540.079
sg10
S'0'
p279
sg12
VE:/Mindoro Blk29N Copy Las/Output/pt000078.tif
p280
sg14
F1465287548.396
sg15
VE:/Mindoro Blk29N Copy Las/LAZ/pt000078.laz
p281
sg17
S'Error'
p282
sbsS'3338'
p283
g2
(g3
g4
Ntp284
Rp285
(dp286
g8
I3338
sg9
F1465267833.165
sg10
S'2'
p287
sg12
VE:/Mindoro Blk29N Copy Las/Output/pt000008.tif
p288
sg14
F1465267880.601
sg15
VE:/Mindoro Blk29N Copy Las/LAZ/pt000008.laz
p289
sg17
S'Error'
p290
sbsS'3037'
p291
g2
(g3
g4
Ntp292
Rp293
(dp294
g8
I3037
sg9
F1459940161.002
sg10
S'0'
p295
sg12
VE:\u005cFeatureExtraction_Pagsanjan\u005cOutputs_Laguna_Blk28J/pt000131.tif
p296
sg14
F1459940231.74
sg15
VE:\u005cFeatureExtraction_Pagsanjan\u005cLAZ_Laguna_Blk28J/pt000131.laz
p297
sg17
S'Error'
p298
sbsS'3244'
p299
g2
(g3
g4
Ntp300
Rp301
(dp302
g8
I3244
sg9
F1460373840.49
sg10
S'2'
p303
sg12
VE:\u005cFeatureExtraction_Bansud\u005cOutputs_Mindoro_Blk28Ds/pt000075.tif
p304
sg14
F1460373844.811
sg15
VE:\u005cFeatureExtraction_Bansud\u005cLAZ_Mindoro_Blk28Ds/pt000075.laz
p305
sg17
S'Error'
p306
sbsS'3023'
p307
g2
(g3
g4
Ntp308
Rp309
(dp310
g8
I3023
sg9
F1459938209.878
sg10
S'2'
p311
sg12
VE:\u005cFeatureExtraction_Pagsanjan\u005cOutputs_Laguna_Blk28J/pt000014.tif
p312
sg14
F1459938249.861
sg15
VE:\u005cFeatureExtraction_Pagsanjan\u005cLAZ_Laguna_Blk28J/pt000014.laz
p313
sg17
S'Error'
p314
sbsS'3151'
p315
g2
(g3
g4
Ntp316
Rp317
(dp318
g8
I3151
sg9
F1460023966.802
sg10
S'3'
p319
sg12
VE:\u005cFeatureExtraction_Pagsanjan\u005cOutputs_Cavite_Blk18I/pt000217.tif
p320
sg14
F1460023967.644
sg15
VE:\u005cFeatureExtraction_Pagsanjan\u005cLAZ_Cavite_Blk18I/pt000217.laz
p321
sg17
S'Error'
p322
sbsS'2904'
p323
g2
(g3
g4
Ntp324
Rp325
(dp326
g8
I2904
sg9
F1459829392.523
sg10
S'1'
p327
sg12
VE:\u005cFeatureExtraction_Agsalin\u005cOutputs_Mindoro_Blk28D/pt000121.tif
p328
sg14
F1459829393.849
sg15
VE:\u005cFeatureExtraction_Agsalin\u005cLAZ_Mindoro_Blk28D/pt000121.laz
p329
sg17
S'Error'
p330
sbsS'3308'
p331
g2
(g3
g4
Ntp332
Rp333
(dp334
g8
I3308
sg9
F1462853887.194
sg10
S'1'
p335
sg12
VE:/FeatureExtractionOutputsTry/pt000123.tif
p336
sg14
F1462854071.861
sg15
VE:\u005cFeatureExtraction_Sumagui\u005cLAZ_Mindoro_Blk28E/pt000123.laz
p337
sg17
S'Error'
p338
sbsS'3474'
p339
g2
(g3
g4
Ntp340
Rp341
(dp342
g8
I3474
sg9
F1465462269.362
sg10
S'0'
p343
sg12
VE:/FeatureExtractionOutputs/pt000061.tif
p344
sg14
F1465462270.939
sg15
VE:/testinput/pt000061.laz
p345
sg17
S'Error'
p346
sbsS'3475'
p347
g2
(g3
g4
Ntp348
Rp349
(dp350
g8
I3475
sg9
F1465462276.492
sg10
S'0'
p351
sg12
VE:/FeatureExtractionOutputs/pt000064.tif
p352
sg14
F1465462278.065
sg15
VE:/testinput/pt000064.laz
p353
sg17
S'Error'
p354
sbsS'3476'
p355
g2
(g3
g4
Ntp356
Rp357
(dp358
g8
I3476
sg9
F1465462283.613
sg10
S'0'
p359
sg12
VE:/FeatureExtractionOutputs/pt000069.tif
p360
sg14
F1465462294.76
sg15
VE:/testinput/pt000069.laz
p361
sg17
S'Error'
p362
sbsS'3477'
p363
g2
(g3
g4
Ntp364
Rp365
(dp366
g8
I3477
sg9
F1465462300.314
sg10
S'0'
p367
sg12
VE:/FeatureExtractionOutputs/pt000122.tif
p368
sg14
F1465462311.47
sg15
VE:/testinput/pt000122.laz
p369
sg17
S'Error'
p370
sbsS'3470'
p371
g2
(g3
g4
Ntp372
Rp373
(dp374
g8
I3470
sg9
F1465462231.677
sg10
S'0'
p375
sg12
VE:/FeatureExtractionOutputs/pt000011.tif
p376
sg14
F1465462242.536
sg15
VE:/testinput/pt000011.laz
p377
sg17
S'Error'
p378
sbsS'3471'
p379
g2
(g3
g4
Ntp380
Rp381
(dp382
g8
I3471
sg9
F1465462248.086
sg10
S'0'
p383
sg12
VE:/FeatureExtractionOutputs/pt000021.tif
p384
sg14
F1465462249.701
sg15
VE:/testinput/pt000021.laz
p385
sg17
S'Error'
p386
sbsS'3472'
p387
g2
(g3
g4
Ntp388
Rp389
(dp390
g8
I3472
sg9
F1465462255.26
sg10
S'0'
p391
sg12
VE:/FeatureExtractionOutputs/pt000022.tif
p392
sg14
F1465462256.775
sg15
VE:/testinput/pt000022.laz
p393
sg17
S'Error'
p394
sbsS'3473'
p395
g2
(g3
g4
Ntp396
Rp397
(dp398
g8
I3473
sg9
F1465462262.328
sg10
S'0'
p399
sg12
VE:/FeatureExtractionOutputs/pt000023.tif
p400
sg14
F1465462263.832
sg15
VE:/testinput/pt000023.laz
p401
sg17
S'Error'
p402
sbsS'3478'
p403
g2
(g3
g4
Ntp404
Rp405
(dp406
g8
I3478
sg9
F1465462317.025
sg10
S'0'
p407
sg12
VE:/FeatureExtractionOutputs/pt000127.tif
p408
sg14
F1465462328.113
sg15
VE:/testinput/pt000127.laz
p409
sg17
S'Error'
p410
sbsS'3479'
p411
g2
(g3
g4
Ntp412
Rp413
(dp414
g8
I3479
sg9
F1465462410.719
sg10
S'0'
p415
sg12
VE:/FeatureExtractionOutputs/pt000011.tif
p416
sg14
F1465462421.857
sg15
VE:/testinput/pt000011.laz
p417
sg17
S'Error'
p418
sbsS'3021'
p419
g2
(g3
g4
Ntp420
Rp421
(dp422
g8
I3021
sg9
F1459938135.295
sg10
S'2'
p423
sg12
VE:\u005cFeatureExtraction_Pagsanjan\u005cOutputs_Laguna_Blk28J/pt000012.tif
p424
sg14
F1459938202.266
sg15
VE:\u005cFeatureExtraction_Pagsanjan\u005cLAZ_Laguna_Blk28J/pt000012.laz
p425
sg17
S'Error'
p426
sbsS'3660'
p427
g2
(g3
g4
Ntp428
Rp429
(dp430
g8
I3660
sg9
F1468838785.699
sg10
S'0'
p431
sg12
VE:/FeatureExtractionOutputs/pt000113.tif
p432
sg14
F1468839115.804
sg15
VE:/testinput/pt000113.laz
p433
sg17
S'Error'
p434
sbsS'2763'
p435
g2
(g3
g4
Ntp436
Rp437
(dp438
g8
I2763
sg9
F1459495462.818
sg10
S'0'
p439
sg12
VE:/FeatureExtractionOutputs/pt000023.tif
p440
sg14
F1459495464.233
sg15
VE:/testinput/pt000023.laz
p441
sg17
S'Error'
p442
sbsS'2762'
p443
g2
(g3
g4
Ntp444
Rp445
(dp446
g8
I2762
sg9
F1459495455.891
sg10
S'0'
p447
sg12
VE:/FeatureExtractionOutputs/pt000022.tif
p448
sg14
F1459495457.284
sg15
VE:/testinput/pt000022.laz
p449
sg17
S'Error'
p450
sbsS'2765'
p451
g2
(g3
g4
Ntp452
Rp453
(dp454
g8
I2765
sg9
F1459495481.525
sg10
S'0'
p455
sg12
VE:/FeatureExtractionOutputs/pt000064.tif
p456
sg14
F1459495482.898
sg15
VE:/testinput/pt000064.laz
p457
sg17
S'Error'
p458
sbsS'3261'
p459
g2
(g3
g4
Ntp460
Rp461
(dp462
g8
I3261
sg9
F1460684028.393
sg10
S'0'
p463
sg12
VE:/FeatureExtractionOutputs/pt000023.tif
p464
sg14
F1460684036.867
sg15
VE:/testinput/pt000023.laz
p465
sg17
S'Error'
p466
sbsS'3263'
p467
g2
(g3
g4
Ntp468
Rp469
(dp470
g8
I3263
sg9
F1460685097.608
sg10
S'0'
p471
sg12
VE:/FeatureExtractionOutputs/pt000064.tif
p472
sg14
F1460685100.463
sg15
VE:/testinput/pt000064.laz
p473
sg17
S'Error'
p474
sbsS'3269'
p475
g2
(g3
g4
Ntp476
Rp477
(dp478
g8
I3269
sg9
F1460685272.023
sg10
S'0'
p479
sg12
VE:/FeatureExtractionOutputs/pt000022.tif
p480
sg14
F1460685273.372
sg15
VE:/testinput/pt000022.laz
p481
sg17
S'Error'
p482
sbsS'2831'
p483
g2
(g3
g4
Ntp484
Rp485
(dp486
g8
I2831
sg9
F1459753807.903
sg10
S'0'
p487
sg12
VE:\u005cFeatureExtraction_Agsalin\u005cOutputs_Mindoro_Blk28Bs/pt000043.tif
p488
sg14
F1459753808.762
sg15
VE:/FeatureExtraction_Agsalin/LAZ_Mindoro_Blk28Bs/pt000043.laz
p489
sg17
S'Error'
p490
sbsS'3508'
p491
g2
(g3
g4
Ntp492
Rp493
(dp494
g8
I3508
sg9
F1465463023.7
sg10
S'0'
p495
sg12
VE:/FeatureExtractionOutputs/pt000022.tif
p496
sg14
F1465463025.266
sg15
VE:/testinput/pt000022.laz
p497
sg17
S'Error'
p498
sbsS'3466'
p499
g2
(g3
g4
Ntp500
Rp501
(dp502
g8
I3466
sg9
F1465461685.501
sg10
S'0'
p503
sg12
VE:/FeatureExtractionOutputs/pt000064.tif
p504
sg14
F1465461686.934
sg15
VE:/testinput/pt000064.laz
p505
sg17
S'Error'
p506
sbsS'3018'
p507
g2
(g3
g4
Ntp508
Rp509
(dp510
g8
I3018
sg9
F1459938053.603
sg10
S'1'
p511
sg12
VE:\u005cFeatureExtraction_Pagsanjan\u005cOutputs_Laguna_Blk28J/pt000009.tif
p512
sg14
F1459938087.783
sg15
VE:\u005cFeatureExtraction_Pagsanjan\u005cLAZ_Laguna_Blk28J/pt000009.laz
p513
sg17
S'Error'
p514
sbsS'3464'
p515
g2
(g3
g4
Ntp516
Rp517
(dp518
g8
I3464
sg9
F1465461671.493
sg10
S'0'
p519
sg12
VE:/FeatureExtractionOutputs/pt000023.tif
p520
sg14
F1465461672.94
sg15
VE:/testinput/pt000023.laz
p521
sg17
S'Error'
p522
sbsS'3463'
p523
g2
(g3
g4
Ntp524
Rp525
(dp526
g8
I3463
sg9
F1465461664.49
sg10
S'0'
p527
sg12
VE:/FeatureExtractionOutputs/pt000022.tif
p528
sg14
F1465461665.942
sg15
VE:/testinput/pt000022.laz
p529
sg17
S'Error'
p530
sbsS'3462'
p531
g2
(g3
g4
Ntp532
Rp533
(dp534
g8
I3462
sg9
F1465461657.359
sg10
S'0'
p535
sg12
VE:/FeatureExtractionOutputs/pt000021.tif
p536
sg14
F1465461658.966
sg15
VE:/testinput/pt000021.laz
p537
sg17
S'Error'
p538
sbsS'3461'
p539
g2
(g3
g4
Ntp540
Rp541
(dp542
g8
I3461
sg9
F1465461636.939
sg10
S'0'
p543
sg12
VE:/FeatureExtractionOutputs/pt000011.tif
p544
sg14
F1465461651.795
sg15
VE:/testinput/pt000011.laz
p545
sg17
S'Error'
p546
sbsS'3016'
p547
g2
(g3
g4
Ntp548
Rp549
(dp550
g8
I3016
sg9
F1459937944.793
sg10
S'1'
p551
sg12
VE:\u005cFeatureExtraction_Pagsanjan\u005cOutputs_Laguna_Blk28J/pt000007.tif
p552
sg14
F1459938047.581
sg15
VE:\u005cFeatureExtraction_Pagsanjan\u005cLAZ_Laguna_Blk28J/pt000007.laz
p553
sg17
S'Error'
p554
sbsS'3017'
p555
g2
(g3
g4
Ntp556
Rp557
(dp558
g8
I3017
sg9
F1459938003.368
sg10
S'3'
p559
sg12
VE:\u005cFeatureExtraction_Pagsanjan\u005cOutputs_Laguna_Blk28J/pt000008.tif
p560
sg14
F1459938064.723
sg15
VE:\u005cFeatureExtraction_Pagsanjan\u005cLAZ_Laguna_Blk28J/pt000008.laz
p561
sg17
S'Error'
p562
sbsS'3506'
p563
g2
(g3
g4
Ntp564
Rp565
(dp566
g8
I3506
sg9
F1465462906.089
sg10
S'0'
p567
sg12
VE:/FeatureExtractionOutputs/pt000011.tif
p568
sg14
F1465462916.9
sg15
VE:/testinput/pt000011.laz
p569
sg17
S'Error'
p570
sbsS'3015'
p571
g2
(g3
g4
Ntp572
Rp573
(dp574
g8
I3015
sg9
F1459937882.265
sg10
S'3'
p575
sg12
VE:\u005cFeatureExtraction_Pagsanjan\u005cOutputs_Laguna_Blk28J/pt000006.tif
p576
sg14
F1459937996.099
sg15
VE:\u005cFeatureExtraction_Pagsanjan\u005cLAZ_Laguna_Blk28J/pt000006.laz
p577
sg17
S'Error'
p578
sbsS'3093'
p579
g2
(g3
g4
Ntp580
Rp581
(dp582
g8
I3093
sg9
F1459950657.331
sg10
S'2'
p583
sg12
VE:\u005cFeatureExtraction_Pagsanjan\u005cOutputs_Laguna_Blk18H/pt000127.tif
p584
sg14
F1459950739.792
sg15
VE:\u005cFeatureExtraction_Pagsanjan\u005cLAZ_Laguna_Blk18H/pt000127.laz
p585
sg17
S'Error'
p586
sbsS'3096'
p587
g2
(g3
g4
Ntp588
Rp589
(dp590
g8
I3096
sg9
F1459951164.271
sg10
S'2'
p591
sg12
VE:\u005cFeatureExtraction_Pagsanjan\u005cOutputs_Laguna_Blk18H/pt000165.tif
p592
sg14
F1459951171.806
sg15
VE:\u005cFeatureExtraction_Pagsanjan\u005cLAZ_Laguna_Blk18H/pt000165.laz
p593
sg17
S'Error'
p594
sbsS'3095'
p595
g2
(g3
g4
Ntp596
Rp597
(dp598
g8
I3095
sg9
F1459951163.44
sg10
S'0'
p599
sg12
VE:\u005cFeatureExtraction_Pagsanjan\u005cOutputs_Laguna_Blk18H/pt000164.tif
p600
sg14
F1459951226.856
sg15
VE:\u005cFeatureExtraction_Pagsanjan\u005cLAZ_Laguna_Blk18H/pt000164.laz
p601
sg17
S'Error'
p602
sbsS'3270'
p603
g2
(g3
g4
Ntp604
Rp605
(dp606
g8
I3270
sg9
F1460685278.923
sg10
S'0'
p607
sg12
VE:/FeatureExtractionOutputs/pt000023.tif
p608
sg14
F1460685280.362
sg15
VE:/testinput/pt000023.laz
p609
sg17
S'Error'
p610
sbsS'3457'
p611
g2
(g3
g4
Ntp612
Rp613
(dp614
g8
I3457
sg9
F1465350883.47
sg10
S'0'
p615
sg12
VE:/Allen_output/pt000064.tif
p616
sg14
F1465350884.878
sg15
VE:/testinput/pt000064.laz
p617
sg17
S'Error'
p618
sbsS'3454'
p619
g2
(g3
g4
Ntp620
Rp621
(dp622
g8
I3454
sg9
F1465350857.418
sg10
S'0'
p623
sg12
VE:/Allen_output/pt000022.tif
p624
sg14
F1465350858.91
sg15
VE:/testinput/pt000022.laz
p625
sg17
S'Error'
p626
sbsS'3455'
p627
g2
(g3
g4
Ntp628
Rp629
(dp630
g8
I3455
sg9
F1465350864.545
sg10
S'0'
p631
sg12
VE:/Allen_output/pt000023.tif
p632
sg14
F1465350865.922
sg15
VE:/testinput/pt000023.laz
p633
sg17
S'Error'
p634
sbsS'3364'
p635
g2
(g3
g4
Ntp636
Rp637
(dp638
g8
I3364
sg9
F1465278720.943
sg10
S'0'
p639
sg12
VE:/Mindoro Blk29N Copy Las/Output/pt000034.tif
p640
sg14
F1465278836.184
sg15
VE:/Mindoro Blk29N Copy Las/LAZ/pt000034.laz
p641
sg17
S'Error'
p642
sbsS'3517'
p643
g2
(g3
g4
Ntp644
Rp645
(dp646
g8
I3517
sg9
F1465463093.534
sg10
S'0'
p647
sg12
VE:/FeatureExtractionOutputs/pt000022.tif
p648
sg14
F1465463118.311
sg15
VE:/testinput/pt000022.laz
p649
sg17
S'Error'
p650
sbsS'3516'
p651
g2
(g3
g4
Ntp652
Rp653
(dp654
g8
I3516
sg9
F1465463071.987
sg10
S'0'
p655
sg12
VE:/FeatureExtractionOutputs/pt000021.tif
p656
sg14
F1465463073.721
sg15
VE:/testinput/pt000021.laz
p657
sg17
S'Error'
p658
sbsS'3515'
p659
g2
(g3
g4
Ntp660
Rp661
(dp662
g8
I3515
sg9
F1465463054.587
sg10
S'0'
p663
sg12
VE:/FeatureExtractionOutputs/pt000011.tif
p664
sg14
F1465463066.418
sg15
VE:/testinput/pt000011.laz
p665
sg17
S'Error'
p666
sbsS'3087'
p667
g2
(g3
g4
Ntp668
Rp669
(dp670
g8
I3087
sg9
F1459950018.367
sg10
S'2'
p671
sg12
VE:\u005cFeatureExtraction_Pagsanjan\u005cOutputs_Laguna_Blk18H/pt000121.tif
p672
sg14
F1459950067.679
sg15
VE:\u005cFeatureExtraction_Pagsanjan\u005cLAZ_Laguna_Blk18H/pt000121.laz
p673
sg17
S'Error'
p674
sbsS'3467'
p675
g2
(g3
g4
Ntp676
Rp677
(dp678
g8
I3467
sg9
F1465461692.51
sg10
S'0'
p679
sg12
VE:/FeatureExtractionOutputs/pt000069.tif
p680
sg14
F1465461704.099
sg15
VE:/testinput/pt000069.laz
p681
sg17
S'Error'
p682
sbsS'3465'
p683
g2
(g3
g4
Ntp684
Rp685
(dp686
g8
I3465
sg9
F1465461678.483
sg10
S'0'
p687
sg12
VE:/FeatureExtractionOutputs/pt000061.tif
p688
sg14
F1465461679.943
sg15
VE:/testinput/pt000061.laz
p689
sg17
S'Error'
p690
sbsS'3019'
p691
g2
(g3
g4
Ntp692
Rp693
(dp694
g8
I3019
sg9
F1459938076.002
sg10
S'3'
p695
sg12
VE:\u005cFeatureExtraction_Pagsanjan\u005cOutputs_Laguna_Blk28J/pt000010.tif
p696
sg14
F1459938158.651
sg15
VE:\u005cFeatureExtraction_Pagsanjan\u005cLAZ_Laguna_Blk28J/pt000010.laz
p697
sg17
S'Error'
p698
sbsS'3446'
p699
g2
(g3
g4
Ntp700
Rp701
(dp702
g8
I3446
sg9
F1465290057.453
sg10
S'2'
p703
sg12
VE:/Mindoro Blk29N Copy Las/Output/pt000116.tif
p704
sg14
F1465290059.091
sg15
VE:/Mindoro Blk29N Copy Las/LAZ/pt000116.laz
p705
sg17
S'Error'
p706
sbsS'3440'
p707
g2
(g3
g4
Ntp708
Rp709
(dp710
g8
I3440
sg9
F1465289801.69
sg10
S'2'
p711
sg12
VE:/Mindoro Blk29N Copy Las/Output/pt000110.tif
p712
sg14
F1465289802.642
sg15
VE:/Mindoro Blk29N Copy Las/LAZ/pt000110.laz
p713
sg17
S'Error'
p714
sbsS'3442'
p715
g2
(g3
g4
Ntp716
Rp717
(dp718
g8
I3442
sg9
F1465289846.202
sg10
S'1'
p719
sg12
VE:/Mindoro Blk29N Copy Las/Output/pt000112.tif
p720
sg14
F1465289910.654
sg15
VE:/Mindoro Blk29N Copy Las/LAZ/pt000112.laz
p721
sg17
S'Error'
p722
sbsS'2755'
p723
g2
(g3
g4
Ntp724
Rp725
(dp726
g8
I2755
sg9
F1459492718.517
sg10
S'0'
p727
sg12
VE:/FeatureExtractionOutputs/pt000064.tif
p728
sg14
F1459492719.938
sg15
VE:/testinput/pt000064.laz
p729
sg17
S'Error'
p730
sbsS'2752'
p731
g2
(g3
g4
Ntp732
Rp733
(dp734
g8
I2752
sg9
F1459492119.383
sg10
S'0'
p735
sg12
VE:/FeatureExtractionOutputs/pt000064.tif
p736
sg14
Nsg15
VE:/testinput/pt000064.laz
p737
sg17
S'Error'
p738
sbsS'2758'
p739
g2
(g3
g4
Ntp740
Rp741
(dp742
g8
I2758
sg9
F1459493974.132
sg10
S'0'
p743
sg12
VE:/FeatureExtractionOutputs/pt000064.tif
p744
sg14
F1459493975.932
sg15
VE:/testinput/pt000064.laz
p745
sg17
S'Error'
p746
sbsS'2734'
p747
g2
(g3
g4
Ntp748
Rp749
(dp750
g8
I2734
sg9
F1459481968.964
sg10
S'0'
p751
sg12
VE:/FeatureExtractionOutputs/pt000064.tif
p752
sg14
Nsg15
VE:/testinput/pt000064.laz
p753
sg17
g18
sbsS'2737'
p754
g2
(g3
g4
Ntp755
Rp756
(dp757
g8
I2737
sg9
F1459482289.97
sg10
S'0'
p758
sg12
VE:/FeatureExtractionOutputs/pt000064.tif
p759
sg14
Nsg15
VE:/testinput/pt000064.laz
p760
sg17
g18
sbsS'2731'
p761
g2
(g3
g4
Ntp762
Rp763
(dp764
g8
I2731
sg9
F1459481795.621
sg10
S'0'
p765
sg12
VE:/FeatureExtractionOutputs/pt000064.tif
p766
sg14
Nsg15
VE:/testinput/pt000064.laz
p767
sg17
g18
sbsS'3469'
p768
g2
(g3
g4
Ntp769
Rp770
(dp771
g8
I3469
sg9
F1465461726.59
sg10
S'0'
p772
sg12
VE:/FeatureExtractionOutputs/pt000127.tif
p773
sg14
F1465461738.175
sg15
VE:/testinput/pt000127.laz
p774
sg17
S'Error'
p775
sbsS'3468'
p776
g2
(g3
g4
Ntp777
Rp778
(dp779
g8
I3468
sg9
F1465461709.659
sg10
S'0'
p780
sg12
VE:/FeatureExtractionOutputs/pt000122.tif
p781
sg14
F1465461721.059
sg15
VE:/testinput/pt000122.laz
p782
sg17
S'Error'
p783
sbsS'3349'
p784
g2
(g3
g4
Ntp785
Rp786
(dp787
g8
I3349
sg9
F1465270762.472
sg10
S'1'
p788
sg12
VE:/Mindoro Blk29N Copy Las/Output/pt000019.tif
p789
sg14
F1465271311.152
sg15
VE:/Mindoro Blk29N Copy Las/LAZ/pt000019.laz
p790
sg17
S'Error'
p791
sbsS'3340'
p792
g2
(g3
g4
Ntp793
Rp794
(dp795
g8
I3340
sg9
F1465267886.319
sg10
S'2'
p796
sg12
VE:/Mindoro Blk29N Copy Las/Output/pt000010.tif
p797
sg14
F1465267888.255
sg15
VE:/Mindoro Blk29N Copy Las/LAZ/pt000010.laz
p798
sg17
S'Error'
p799
sbsS'3433'
p800
g2
(g3
g4
Ntp801
Rp802
(dp803
g8
I3433
sg9
F1465289431.365
sg10
S'1'
p804
sg12
VE:/Mindoro Blk29N Copy Las/Output/pt000103.tif
p805
sg14
F1465289435.729
sg15
VE:/Mindoro Blk29N Copy Las/LAZ/pt000103.laz
p806
sg17
S'Error'
p807
sbsS'3346'
p808
g2
(g3
g4
Ntp809
Rp810
(dp811
g8
I3346
sg9
F1465270435.18
sg10
S'1'
p812
sg12
VE:/Mindoro Blk29N Copy Las/Output/pt000016.tif
p813
sg14
F1465270442.621
sg15
VE:/Mindoro Blk29N Copy Las/LAZ/pt000016.laz
p814
sg17
S'Error'
p815
sbsS'3347'
p816
g2
(g3
g4
Ntp817
Rp818
(dp819
g8
I3347
sg9
F1465270453.744
sg10
S'1'
p820
sg12
VE:/Mindoro Blk29N Copy Las/Output/pt000017.tif
p821
sg14
F1465270548.419
sg15
VE:/Mindoro Blk29N Copy Las/LAZ/pt000017.laz
p822
sg17
S'Error'
p823
sbsS'2740'
p824
g2
(g3
g4
Ntp825
Rp826
(dp827
g8
I2740
sg9
F1459490153.744
sg10
S'0'
p828
sg12
VE:/FeatureExtractionOutputs/pt000064.tif
p829
sg14
Nsg15
VE:/testinput/pt000064.laz
p830
sg17
g18
sbsS'2743'
p831
g2
(g3
g4
Ntp832
Rp833
(dp834
g8
I2743
sg9
F1459490786.047
sg10
S'0'
p835
sg12
VE:/FeatureExtractionOutputs/pt000064.tif
p836
sg14
Nsg15
VE:/testinput/pt000064.laz
p837
sg17
g18
sbsS'2746'
p838
g2
(g3
g4
Ntp839
Rp840
(dp841
g8
I2746
sg9
F1459491088.16
sg10
S'0'
p842
sg12
VE:/FeatureExtractionOutputs/pt000064.tif
p843
sg14
Nsg15
VE:/testinput/pt000064.laz
p844
sg17
g18
sbsS'2749'
p845
g2
(g3
g4
Ntp846
Rp847
(dp848
g8
I2749
sg9
F1459491229.504
sg10
S'0'
p849
sg12
VE:/FeatureExtractionOutputs/pt000064.tif
p850
sg14
Nsg15
VE:/testinput/pt000064.laz
p851
sg17
g18
sbsS'2725'
p852
g2
(g3
g4
Ntp853
Rp854
(dp855
g8
I2725
sg9
F1459478937.2
sg10
S'0'
p856
sg12
VE:/FeatureExtractionOutputs/pt000064.tif
p857
sg14
Nsg15
VE:/testinput/pt000064.laz
p858
sg17
g18
sbsS'2720'
p859
g2
(g3
g4
Ntp860
Rp861
(dp862
g8
I2720
sg9
F1459478797.282
sg10
S'0'
p863
sg12
VE:/FeatureExtractionOutputs/pt000064.tif
p864
sg14
Nsg15
VE:/testinput/pt000064.laz
p865
sg17
g18
sbsS'3485'
p866
g2
(g3
g4
Ntp867
Rp868
(dp869
g8
I3485
sg9
F1465462462.56
sg10
S'0'
p870
sg12
VE:/FeatureExtractionOutputs/pt000069.tif
p871
sg14
F1465462473.636
sg15
VE:/testinput/pt000069.laz
p872
sg17
S'Error'
p873
sbsS'2728'
p874
g2
(g3
g4
Ntp875
Rp876
(dp877
g8
I2728
sg9
F1459481396.012
sg10
S'0'
p878
sg12
VE:/FeatureExtractionOutputs/pt000064.tif
p879
sg14
Nsg15
VE:/testinput/pt000064.laz
p880
sg17
g18
sbsS'3357'
p881
g2
(g3
g4
Ntp882
Rp883
(dp884
g8
I3357
sg9
F1465275648.943
sg10
S'1'
p885
sg12
VE:/Mindoro Blk29N Copy Las/Output/pt000027.tif
p886
sg14
F1465275653.889
sg15
VE:/Mindoro Blk29N Copy Las/LAZ/pt000027.laz
p887
sg17
S'Error'
p888
sbsS'3350'
p889
g2
(g3
g4
Ntp890
Rp891
(dp892
g8
I3350
sg9
F1465271316.901
sg10
S'1'
p893
sg12
VE:/Mindoro Blk29N Copy Las/Output/pt000020.tif
p894
sg14
F1465271317.481
sg15
VE:/Mindoro Blk29N Copy Las/LAZ/pt000020.laz
p895
sg17
S'Error'
p896
sbsS'3352'
p897
g2
(g3
g4
Ntp898
Rp899
(dp900
g8
I3352
sg9
F1465271562.733
sg10
S'1'
p901
sg12
VE:/Mindoro Blk29N Copy Las/Output/pt000022.tif
p902
sg14
F1465271595.549
sg15
VE:/Mindoro Blk29N Copy Las/LAZ/pt000022.laz
p903
sg17
S'Error'
p904
sbsS'3358'
p905
g2
(g3
g4
Ntp906
Rp907
(dp908
g8
I3358
sg9
F1465275661.132
sg10
S'1'
p909
sg12
VE:/Mindoro Blk29N Copy Las/Output/pt000028.tif
p910
sg14
F1465275693.179
sg15
VE:/Mindoro Blk29N Copy Las/LAZ/pt000028.laz
p911
sg17
S'Error'
p912
sbsS'3429'
p913
g2
(g3
g4
Ntp914
Rp915
(dp916
g8
I3429
sg9
F1465289202.454
sg10
S'0'
p917
sg12
VE:/Mindoro Blk29N Copy Las/Output/pt000099.tif
p918
sg14
F1465289206.428
sg15
VE:/Mindoro Blk29N Copy Las/LAZ/pt000099.laz
p919
sg17
S'Error'
p920
sbsS'3197'
p921
g2
(g3
g4
Ntp922
Rp923
(dp924
g8
I3197
sg9
F1460031495.578
sg10
S'3'
p925
sg12
VE:\u005cFeatureExtraction_Bansud\u005cOutputs_Mindoro_Blk28E/pt000197.tif
p926
sg14
F1460031545.514
sg15
VE:\u005cFeatureExtraction_Bansud\u005cLAZ_Mindoro_Blk28E/pt000197.laz
p927
sg17
S'Error'
p928
sbs.