(dp0
S'2734'
p1
ccopy_reg
_reconstructor
p2
(cworkitem
Workitem
p3
c__builtin__
object
p4
Ntp5
Rp6
(dp7
S'itemId'
p8
I2734
sS'start_time'
p9
F1459481968.964
sS'worker_id'
p10
S'0'
p11
sS'output_path'
p12
VE:/FeatureExtractionOutputs/pt000064.tif
p13
sS'end_time'
p14
NsS'path'
p15
VE:/testinput/pt000064.laz
p16
sS'error_msg'
p17
cexceptions
KeyError
p18
sbsS'2737'
p19
g2
(g3
g4
Ntp20
Rp21
(dp22
g8
I2737
sg9
F1459482289.97
sg10
S'0'
p23
sg12
VE:/FeatureExtractionOutputs/pt000064.tif
p24
sg14
Nsg15
VE:/testinput/pt000064.laz
p25
sg17
g18
sbsS'3442'
p26
g2
(g3
g4
Ntp27
Rp28
(dp29
g8
I3442
sg9
F1465289846.202
sg10
S'1'
p30
sg12
VE:/Mindoro Blk29N Copy Las/Output/pt000112.tif
p31
sg14
F1465289910.654
sg15
VE:/Mindoro Blk29N Copy Las/LAZ/pt000112.laz
p32
sg17
S'Error'
p33
sbsS'2731'
p34
g2
(g3
g4
Ntp35
Rp36
(dp37
g8
I2731
sg9
F1459481795.621
sg10
S'0'
p38
sg12
VE:/FeatureExtractionOutputs/pt000064.tif
p39
sg14
Nsg15
VE:/testinput/pt000064.laz
p40
sg17
g18
sbsS'2904'
p41
g2
(g3
g4
Ntp42
Rp43
(dp44
g8
I2904
sg9
F1459829392.523
sg10
S'1'
p45
sg12
VE:\u005cFeatureExtraction_Agsalin\u005cOutputs_Mindoro_Blk28D/pt000121.tif
p46
sg14
F1459829393.849
sg15
VE:\u005cFeatureExtraction_Agsalin\u005cLAZ_Mindoro_Blk28D/pt000121.laz
p47
sg17
S'Error'
p48
sbsS'3346'
p49
g2
(g3
g4
Ntp50
Rp51
(dp52
g8
I3346
sg9
F1465270435.18
sg10
S'1'
p53
sg12
VE:/Mindoro Blk29N Copy Las/Output/pt000016.tif
p54
sg14
F1465270442.621
sg15
VE:/Mindoro Blk29N Copy Las/LAZ/pt000016.laz
p55
sg17
S'Error'
p56
sbsS'3352'
p57
g2
(g3
g4
Ntp58
Rp59
(dp60
g8
I3352
sg9
F1465271562.733
sg10
S'1'
p61
sg12
VE:/Mindoro Blk29N Copy Las/Output/pt000022.tif
p62
sg14
F1465271595.549
sg15
VE:/Mindoro Blk29N Copy Las/LAZ/pt000022.laz
p63
sg17
S'Error'
p64
sbsS'3017'
p65
g2
(g3
g4
Ntp66
Rp67
(dp68
g8
I3017
sg9
F1459938003.368
sg10
S'3'
p69
sg12
VE:\u005cFeatureExtraction_Pagsanjan\u005cOutputs_Laguna_Blk28J/pt000008.tif
p70
sg14
F1459938064.723
sg15
VE:\u005cFeatureExtraction_Pagsanjan\u005cLAZ_Laguna_Blk28J/pt000008.laz
p71
sg17
S'Error'
p72
sbsS'3049'
p73
g2
(g3
g4
Ntp74
Rp75
(dp76
g8
I3049
sg9
F1459945288.04
sg10
S'1'
p77
sg12
VE:\u005cFeatureExtraction_Pagsanjan\u005cOutputs_Laguna_Blk18H/pt000016.tif
p78
sg14
F1459945580.525
sg15
VE:\u005cFeatureExtraction_Pagsanjan\u005cLAZ_Laguna_Blk18H/pt000016.laz
p79
sg17
S'Error'
p80
sbsS'3270'
p81
g2
(g3
g4
Ntp82
Rp83
(dp84
g8
I3270
sg9
F1460685278.923
sg10
S'0'
p85
sg12
VE:/FeatureExtractionOutputs/pt000023.tif
p86
sg14
F1460685280.362
sg15
VE:/testinput/pt000023.laz
p87
sg17
S'Error'
p88
sbsS'3327'
p89
g2
(g3
g4
Ntp90
Rp91
(dp92
g8
I3327
sg9
F1462855125.995
sg10
S'1'
p93
sg12
VE:/FeatureExtractionOutputsTry/pt000192.tif
p94
sg14
F1462855127.352
sg15
VE:\u005cFeatureExtraction_Sumagui\u005cLAZ_Mindoro_Blk28E/pt000192.laz
p95
sg17
S'Error'
p96
sbsS'3015'
p97
g2
(g3
g4
Ntp98
Rp99
(dp100
g8
I3015
sg9
F1459937882.265
sg10
S'3'
p101
sg12
VE:\u005cFeatureExtraction_Pagsanjan\u005cOutputs_Laguna_Blk28J/pt000006.tif
p102
sg14
F1459937996.099
sg15
VE:\u005cFeatureExtraction_Pagsanjan\u005cLAZ_Laguna_Blk28J/pt000006.laz
p103
sg17
S'Error'
p104
sbsS'2717'
p105
g2
(g3
g4
Ntp106
Rp107
(dp108
g8
I2717
sg9
F1459477784.281
sg10
S'0'
p109
sg12
VE:/FeatureExtractionOutputs/pt000064.tif
p110
sg14
Nsg15
VE:/testinput/pt000064.laz
p111
sg17
g18
sbsS'3349'
p112
g2
(g3
g4
Ntp113
Rp114
(dp115
g8
I3349
sg9
F1465270762.472
sg10
S'1'
p116
sg12
VE:/Mindoro Blk29N Copy Las/Output/pt000019.tif
p117
sg14
F1465271311.152
sg15
VE:/Mindoro Blk29N Copy Las/LAZ/pt000019.laz
p118
sg17
S'Error'
p119
sbsS'3457'
p120
g2
(g3
g4
Ntp121
Rp122
(dp123
g8
I3457
sg9
F1465350883.47
sg10
S'0'
p124
sg12
VE:/Allen_output/pt000064.tif
p125
sg14
F1465350884.878
sg15
VE:/testinput/pt000064.laz
p126
sg17
S'Error'
p127
sbsS'3454'
p128
g2
(g3
g4
Ntp129
Rp130
(dp131
g8
I3454
sg9
F1465350857.418
sg10
S'0'
p132
sg12
VE:/Allen_output/pt000022.tif
p133
sg14
F1465350858.91
sg15
VE:/testinput/pt000022.laz
p134
sg17
S'Error'
p135
sbsS'3455'
p136
g2
(g3
g4
Ntp137
Rp138
(dp139
g8
I3455
sg9
F1465350864.545
sg10
S'0'
p140
sg12
VE:/Allen_output/pt000023.tif
p141
sg14
F1465350865.922
sg15
VE:/testinput/pt000023.laz
p142
sg17
S'Error'
p143
sbsS'3364'
p144
g2
(g3
g4
Ntp145
Rp146
(dp147
g8
I3364
sg9
F1465278720.943
sg10
S'0'
p148
sg12
VE:/Mindoro Blk29N Copy Las/Output/pt000034.tif
p149
sg14
F1465278836.184
sg15
VE:/Mindoro Blk29N Copy Las/LAZ/pt000034.laz
p150
sg17
S'Error'
p151
sbsS'3340'
p152
g2
(g3
g4
Ntp153
Rp154
(dp155
g8
I3340
sg9
F1465267886.319
sg10
S'2'
p156
sg12
VE:/Mindoro Blk29N Copy Las/Output/pt000010.tif
p157
sg14
F1465267888.255
sg15
VE:/Mindoro Blk29N Copy Las/LAZ/pt000010.laz
p158
sg17
S'Error'
p159
sbsS'3433'
p160
g2
(g3
g4
Ntp161
Rp162
(dp163
g8
I3433
sg9
F1465289431.365
sg10
S'1'
p164
sg12
VE:/Mindoro Blk29N Copy Las/Output/pt000103.tif
p165
sg14
F1465289435.729
sg15
VE:/Mindoro Blk29N Copy Las/LAZ/pt000103.laz
p166
sg17
S'Error'
p167
sbsS'3023'
p168
g2
(g3
g4
Ntp169
Rp170
(dp171
g8
I3023
sg9
F1459938209.878
sg10
S'2'
p172
sg12
VE:\u005cFeatureExtraction_Pagsanjan\u005cOutputs_Laguna_Blk28J/pt000014.tif
p173
sg14
F1459938249.861
sg15
VE:\u005cFeatureExtraction_Pagsanjan\u005cLAZ_Laguna_Blk28J/pt000014.laz
p174
sg17
S'Error'
p175
sbsS'3347'
p176
g2
(g3
g4
Ntp177
Rp178
(dp179
g8
I3347
sg9
F1465270453.744
sg10
S'1'
p180
sg12
VE:/Mindoro Blk29N Copy Las/Output/pt000017.tif
p181
sg14
F1465270548.419
sg15
VE:/Mindoro Blk29N Copy Las/LAZ/pt000017.laz
p182
sg17
S'Error'
p183
sbsS'3021'
p184
g2
(g3
g4
Ntp185
Rp186
(dp187
g8
I3021
sg9
F1459938135.295
sg10
S'2'
p188
sg12
VE:\u005cFeatureExtraction_Pagsanjan\u005cOutputs_Laguna_Blk28J/pt000012.tif
p189
sg14
F1459938202.266
sg15
VE:\u005cFeatureExtraction_Pagsanjan\u005cLAZ_Laguna_Blk28J/pt000012.laz
p190
sg17
S'Error'
p191
sbsS'3257'
p192
g2
(g3
g4
Ntp193
Rp194
(dp195
g8
I3257
sg9
F1460374816.911
sg10
S'2'
p196
sg12
VE:\u005cFeatureExtraction_Bansud\u005cOutputs_Mindoro_Blk28Ds/pt000167.tif
p197
sg14
F1460374820.483
sg15
VE:\u005cFeatureExtraction_Bansud\u005cLAZ_Mindoro_Blk28Ds/pt000167.laz
p198
sg17
S'Error'
p199
sbsS'2740'
p200
g2
(g3
g4
Ntp201
Rp202
(dp203
g8
I2740
sg9
F1459490153.744
sg10
S'0'
p204
sg12
VE:/FeatureExtractionOutputs/pt000064.tif
p205
sg14
Nsg15
VE:/testinput/pt000064.laz
p206
sg17
g18
sbsS'2743'
p207
g2
(g3
g4
Ntp208
Rp209
(dp210
g8
I2743
sg9
F1459490786.047
sg10
S'0'
p211
sg12
VE:/FeatureExtractionOutputs/pt000064.tif
p212
sg14
Nsg15
VE:/testinput/pt000064.laz
p213
sg17
g18
sbsS'2746'
p214
g2
(g3
g4
Ntp215
Rp216
(dp217
g8
I2746
sg9
F1459491088.16
sg10
S'0'
p218
sg12
VE:/FeatureExtractionOutputs/pt000064.tif
p219
sg14
Nsg15
VE:/testinput/pt000064.laz
p220
sg17
g18
sbsS'2749'
p221
g2
(g3
g4
Ntp222
Rp223
(dp224
g8
I2749
sg9
F1459491229.504
sg10
S'0'
p225
sg12
VE:/FeatureExtractionOutputs/pt000064.tif
p226
sg14
Nsg15
VE:/testinput/pt000064.laz
p227
sg17
g18
sbsS'2752'
p228
g2
(g3
g4
Ntp229
Rp230
(dp231
g8
I2752
sg9
F1459492119.383
sg10
S'0'
p232
sg12
VE:/FeatureExtractionOutputs/pt000064.tif
p233
sg14
Nsg15
VE:/testinput/pt000064.laz
p234
sg17
S'Error'
p235
sbsS'3087'
p236
g2
(g3
g4
Ntp237
Rp238
(dp239
g8
I3087
sg9
F1459950018.367
sg10
S'2'
p240
sg12
VE:\u005cFeatureExtraction_Pagsanjan\u005cOutputs_Laguna_Blk18H/pt000121.tif
p241
sg14
F1459950067.679
sg15
VE:\u005cFeatureExtraction_Pagsanjan\u005cLAZ_Laguna_Blk18H/pt000121.laz
p242
sg17
S'Error'
p243
sbsS'3357'
p244
g2
(g3
g4
Ntp245
Rp246
(dp247
g8
I3357
sg9
F1465275648.943
sg10
S'1'
p248
sg12
VE:/Mindoro Blk29N Copy Las/Output/pt000027.tif
p249
sg14
F1465275653.889
sg15
VE:/Mindoro Blk29N Copy Las/LAZ/pt000027.laz
p250
sg17
S'Error'
p251
sbsS'2725'
p252
g2
(g3
g4
Ntp253
Rp254
(dp255
g8
I2725
sg9
F1459478937.2
sg10
S'0'
p256
sg12
VE:/FeatureExtractionOutputs/pt000064.tif
p257
sg14
Nsg15
VE:/testinput/pt000064.laz
p258
sg17
g18
sbsS'3037'
p259
g2
(g3
g4
Ntp260
Rp261
(dp262
g8
I3037
sg9
F1459940161.002
sg10
S'0'
p263
sg12
VE:\u005cFeatureExtraction_Pagsanjan\u005cOutputs_Laguna_Blk28J/pt000131.tif
p264
sg14
F1459940231.74
sg15
VE:\u005cFeatureExtraction_Pagsanjan\u005cLAZ_Laguna_Blk28J/pt000131.laz
p265
sg17
S'Error'
p266
sbsS'2720'
p267
g2
(g3
g4
Ntp268
Rp269
(dp270
g8
I2720
sg9
F1459478797.282
sg10
S'0'
p271
sg12
VE:/FeatureExtractionOutputs/pt000064.tif
p272
sg14
Nsg15
VE:/testinput/pt000064.laz
p273
sg17
g18
sbsS'2763'
p274
g2
(g3
g4
Ntp275
Rp276
(dp277
g8
I2763
sg9
F1459495462.818
sg10
S'0'
p278
sg12
VE:/FeatureExtractionOutputs/pt000023.tif
p279
sg14
F1459495464.233
sg15
VE:/testinput/pt000023.laz
p280
sg17
S'Error'
p281
sbsS'2762'
p282
g2
(g3
g4
Ntp283
Rp284
(dp285
g8
I2762
sg9
F1459495455.891
sg10
S'0'
p286
sg12
VE:/FeatureExtractionOutputs/pt000022.tif
p287
sg14
F1459495457.284
sg15
VE:/testinput/pt000022.laz
p288
sg17
S'Error'
p289
sbsS'2855'
p290
g2
(g3
g4
Ntp291
Rp292
(dp293
g8
I2855
sg9
F1459821323.847
sg10
S'0'
p294
sg12
VE:\u005cFeatureExtraction_Agsalin\u005cOutputs_Mindoro_Blk28Bs/pt000090.tif
p295
sg14
F1459821326.791
sg15
VE:/FeatureExtraction_Agsalin/LAZ_Mindoro_Blk28Bs/pt000090.laz
p296
sg17
S'Error'
p297
sbsS'3018'
p298
g2
(g3
g4
Ntp299
Rp300
(dp301
g8
I3018
sg9
F1459938053.603
sg10
S'1'
p302
sg12
VE:\u005cFeatureExtraction_Pagsanjan\u005cOutputs_Laguna_Blk28J/pt000009.tif
p303
sg14
F1459938087.783
sg15
VE:\u005cFeatureExtraction_Pagsanjan\u005cLAZ_Laguna_Blk28J/pt000009.laz
p304
sg17
S'Error'
p305
sbsS'2765'
p306
g2
(g3
g4
Ntp307
Rp308
(dp309
g8
I2765
sg9
F1459495481.525
sg10
S'0'
p310
sg12
VE:/FeatureExtractionOutputs/pt000064.tif
p311
sg14
F1459495482.898
sg15
VE:/testinput/pt000064.laz
p312
sg17
S'Error'
p313
sbsS'2728'
p314
g2
(g3
g4
Ntp315
Rp316
(dp317
g8
I2728
sg9
F1459481396.012
sg10
S'0'
p318
sg12
VE:/FeatureExtractionOutputs/pt000064.tif
p319
sg14
Nsg15
VE:/testinput/pt000064.laz
p320
sg17
g18
sbsS'3261'
p321
g2
(g3
g4
Ntp322
Rp323
(dp324
g8
I3261
sg9
F1460684028.393
sg10
S'0'
p325
sg12
VE:/FeatureExtractionOutputs/pt000023.tif
p326
sg14
F1460684036.867
sg15
VE:/testinput/pt000023.laz
p327
sg17
S'Error'
p328
sbsS'3332'
p329
g2
(g3
g4
Ntp330
Rp331
(dp332
g8
I3332
sg9
F1465267784.859
sg10
S'2'
p333
sg12
VE:/Mindoro Blk29N Copy Las/Output/pt000002.tif
p334
sg14
F1465267789.083
sg15
VE:/Mindoro Blk29N Copy Las/LAZ/pt000002.laz
p335
sg17
S'Error'
p336
sbsS'3263'
p337
g2
(g3
g4
Ntp338
Rp339
(dp340
g8
I3263
sg9
F1460685097.608
sg10
S'0'
p341
sg12
VE:/FeatureExtractionOutputs/pt000064.tif
p342
sg14
F1460685100.463
sg15
VE:/testinput/pt000064.laz
p343
sg17
S'Error'
p344
sbsS'3350'
p345
g2
(g3
g4
Ntp346
Rp347
(dp348
g8
I3350
sg9
F1465271316.901
sg10
S'1'
p349
sg12
VE:/Mindoro Blk29N Copy Las/Output/pt000020.tif
p350
sg14
F1465271317.481
sg15
VE:/Mindoro Blk29N Copy Las/LAZ/pt000020.laz
p351
sg17
S'Error'
p352
sbsS'3335'
p353
g2
(g3
g4
Ntp354
Rp355
(dp356
g8
I3335
sg9
F1465267804.949
sg10
S'2'
p357
sg12
VE:/Mindoro Blk29N Copy Las/Output/pt000005.tif
p358
sg14
F1465267822.306
sg15
VE:/Mindoro Blk29N Copy Las/LAZ/pt000005.laz
p359
sg17
S'Error'
p360
sbsS'3334'
p361
g2
(g3
g4
Ntp362
Rp363
(dp364
g8
I3334
sg9
F1465267789.541
sg10
S'0'
p365
sg12
VE:/Mindoro Blk29N Copy Las/Output/pt000004.tif
p366
sg14
F1465267856.051
sg15
VE:/Mindoro Blk29N Copy Las/LAZ/pt000004.laz
p367
sg17
S'Error'
p368
sbsS'3269'
p369
g2
(g3
g4
Ntp370
Rp371
(dp372
g8
I3269
sg9
F1460685272.023
sg10
S'0'
p373
sg12
VE:/FeatureExtractionOutputs/pt000022.tif
p374
sg14
F1460685273.372
sg15
VE:/testinput/pt000022.laz
p375
sg17
S'Error'
p376
sbsS'3408'
p377
g2
(g3
g4
Ntp378
Rp379
(dp380
g8
I3408
sg9
F1465287540.079
sg10
S'0'
p381
sg12
VE:/Mindoro Blk29N Copy Las/Output/pt000078.tif
p382
sg14
F1465287548.396
sg15
VE:/Mindoro Blk29N Copy Las/LAZ/pt000078.laz
p383
sg17
S'Error'
p384
sbsS'3338'
p385
g2
(g3
g4
Ntp386
Rp387
(dp388
g8
I3338
sg9
F1465267833.165
sg10
S'2'
p389
sg12
VE:/Mindoro Blk29N Copy Las/Output/pt000008.tif
p390
sg14
F1465267880.601
sg15
VE:/Mindoro Blk29N Copy Las/LAZ/pt000008.laz
p391
sg17
S'Error'
p392
sbsS'3358'
p393
g2
(g3
g4
Ntp394
Rp395
(dp396
g8
I3358
sg9
F1465275661.132
sg10
S'1'
p397
sg12
VE:/Mindoro Blk29N Copy Las/Output/pt000028.tif
p398
sg14
F1465275693.179
sg15
VE:/Mindoro Blk29N Copy Las/LAZ/pt000028.laz
p399
sg17
S'Error'
p400
sbsS'2831'
p401
g2
(g3
g4
Ntp402
Rp403
(dp404
g8
I2831
sg9
F1459753807.903
sg10
S'0'
p405
sg12
VE:\u005cFeatureExtraction_Agsalin\u005cOutputs_Mindoro_Blk28Bs/pt000043.tif
p406
sg14
F1459753808.762
sg15
VE:/FeatureExtraction_Agsalin/LAZ_Mindoro_Blk28Bs/pt000043.laz
p407
sg17
S'Error'
p408
sbsS'3333'
p409
g2
(g3
g4
Ntp410
Rp411
(dp412
g8
I3333
sg9
F1465267790.429
sg10
S'1'
p413
sg12
VE:/Mindoro Blk29N Copy Las/Output/pt000003.tif
p414
sg14
F1465267796.435
sg15
VE:/Mindoro Blk29N Copy Las/LAZ/pt000003.laz
p415
sg17
S'Error'
p416
sbsS'3429'
p417
g2
(g3
g4
Ntp418
Rp419
(dp420
g8
I3429
sg9
F1465289202.454
sg10
S'0'
p421
sg12
VE:/Mindoro Blk29N Copy Las/Output/pt000099.tif
p422
sg14
F1465289206.428
sg15
VE:/Mindoro Blk29N Copy Las/LAZ/pt000099.laz
p423
sg17
S'Error'
p424
sbsS'3019'
p425
g2
(g3
g4
Ntp426
Rp427
(dp428
g8
I3019
sg9
F1459938076.002
sg10
S'3'
p429
sg12
VE:\u005cFeatureExtraction_Pagsanjan\u005cOutputs_Laguna_Blk28J/pt000010.tif
p430
sg14
F1459938158.651
sg15
VE:\u005cFeatureExtraction_Pagsanjan\u005cLAZ_Laguna_Blk28J/pt000010.laz
p431
sg17
S'Error'
p432
sbsS'3331'
p433
g2
(g3
g4
Ntp434
Rp435
(dp436
g8
I3331
sg9
F1465267783.809
sg10
S'3'
p437
sg12
VE:/Mindoro Blk29N Copy Las/Output/pt000001.tif
p438
sg14
F1465267800.98
sg15
VE:/Mindoro Blk29N Copy Las/LAZ/pt000001.laz
p439
sg17
S'Error'
p440
sbsS'3446'
p441
g2
(g3
g4
Ntp442
Rp443
(dp444
g8
I3446
sg9
F1465290057.453
sg10
S'2'
p445
sg12
VE:/Mindoro Blk29N Copy Las/Output/pt000116.tif
p446
sg14
F1465290059.091
sg15
VE:/Mindoro Blk29N Copy Las/LAZ/pt000116.laz
p447
sg17
S'Error'
p448
sbsS'3016'
p449
g2
(g3
g4
Ntp450
Rp451
(dp452
g8
I3016
sg9
F1459937944.793
sg10
S'1'
p453
sg12
VE:\u005cFeatureExtraction_Pagsanjan\u005cOutputs_Laguna_Blk28J/pt000007.tif
p454
sg14
F1459938047.581
sg15
VE:\u005cFeatureExtraction_Pagsanjan\u005cLAZ_Laguna_Blk28J/pt000007.laz
p455
sg17
S'Error'
p456
sbsS'3440'
p457
g2
(g3
g4
Ntp458
Rp459
(dp460
g8
I3440
sg9
F1465289801.69
sg10
S'2'
p461
sg12
VE:/Mindoro Blk29N Copy Las/Output/pt000110.tif
p462
sg14
F1465289802.642
sg15
VE:/Mindoro Blk29N Copy Las/LAZ/pt000110.laz
p463
sg17
S'Error'
p464
sbsS'3308'
p465
g2
(g3
g4
Ntp466
Rp467
(dp468
g8
I3308
sg9
F1462853887.194
sg10
S'1'
p469
sg12
VE:/FeatureExtractionOutputsTry/pt000123.tif
p470
sg14
F1462854071.861
sg15
VE:\u005cFeatureExtraction_Sumagui\u005cLAZ_Mindoro_Blk28E/pt000123.laz
p471
sg17
S'Error'
p472
sbsS'3244'
p473
g2
(g3
g4
Ntp474
Rp475
(dp476
g8
I3244
sg9
F1460373840.49
sg10
S'2'
p477
sg12
VE:\u005cFeatureExtraction_Bansud\u005cOutputs_Mindoro_Blk28Ds/pt000075.tif
p478
sg14
F1460373844.811
sg15
VE:\u005cFeatureExtraction_Bansud\u005cLAZ_Mindoro_Blk28Ds/pt000075.laz
p479
sg17
S'Error'
p480
sbsS'3197'
p481
g2
(g3
g4
Ntp482
Rp483
(dp484
g8
I3197
sg9
F1460031495.578
sg10
S'3'
p485
sg12
VE:\u005cFeatureExtraction_Bansud\u005cOutputs_Mindoro_Blk28E/pt000197.tif
p486
sg14
F1460031545.514
sg15
VE:\u005cFeatureExtraction_Bansud\u005cLAZ_Mindoro_Blk28E/pt000197.laz
p487
sg17
S'Error'
p488
sbsS'3093'
p489
g2
(g3
g4
Ntp490
Rp491
(dp492
g8
I3093
sg9
F1459950657.331
sg10
S'2'
p493
sg12
VE:\u005cFeatureExtraction_Pagsanjan\u005cOutputs_Laguna_Blk18H/pt000127.tif
p494
sg14
F1459950739.792
sg15
VE:\u005cFeatureExtraction_Pagsanjan\u005cLAZ_Laguna_Blk18H/pt000127.laz
p495
sg17
S'Error'
p496
sbsS'2755'
p497
g2
(g3
g4
Ntp498
Rp499
(dp500
g8
I2755
sg9
F1459492718.517
sg10
S'0'
p501
sg12
VE:/FeatureExtractionOutputs/pt000064.tif
p502
sg14
F1459492719.938
sg15
VE:/testinput/pt000064.laz
p503
sg17
S'Error'
p504
sbsS'3096'
p505
g2
(g3
g4
Ntp506
Rp507
(dp508
g8
I3096
sg9
F1459951164.271
sg10
S'2'
p509
sg12
VE:\u005cFeatureExtraction_Pagsanjan\u005cOutputs_Laguna_Blk18H/pt000165.tif
p510
sg14
F1459951171.806
sg15
VE:\u005cFeatureExtraction_Pagsanjan\u005cLAZ_Laguna_Blk18H/pt000165.laz
p511
sg17
S'Error'
p512
sbsS'3095'
p513
g2
(g3
g4
Ntp514
Rp515
(dp516
g8
I3095
sg9
F1459951163.44
sg10
S'0'
p517
sg12
VE:\u005cFeatureExtraction_Pagsanjan\u005cOutputs_Laguna_Blk18H/pt000164.tif
p518
sg14
F1459951226.856
sg15
VE:\u005cFeatureExtraction_Pagsanjan\u005cLAZ_Laguna_Blk18H/pt000164.laz
p519
sg17
S'Error'
p520
sbsS'3151'
p521
g2
(g3
g4
Ntp522
Rp523
(dp524
g8
I3151
sg9
F1460023966.802
sg10
S'3'
p525
sg12
VE:\u005cFeatureExtraction_Pagsanjan\u005cOutputs_Cavite_Blk18I/pt000217.tif
p526
sg14
F1460023967.644
sg15
VE:\u005cFeatureExtraction_Pagsanjan\u005cLAZ_Cavite_Blk18I/pt000217.laz
p527
sg17
S'Error'
p528
sbsS'2758'
p529
g2
(g3
g4
Ntp530
Rp531
(dp532
g8
I2758
sg9
F1459493974.132
sg10
S'0'
p533
sg12
VE:/FeatureExtractionOutputs/pt000064.tif
p534
sg14
F1459493975.932
sg15
VE:/testinput/pt000064.laz
p535
sg17
S'Error'
p536
sbs.