(dp0
S'2734'
p1
ccopy_reg
_reconstructor
p2
(cworkitem
Workitem
p3
c__builtin__
object
p4
Ntp5
Rp6
(dp7
S'itemId'
p8
I2734
sS'start_time'
p9
F1459481968.964
sS'worker_id'
p10
S'0'
p11
sS'output_path'
p12
VE:/FeatureExtractionOutputs/pt000064.tif
p13
sS'end_time'
p14
NsS'path'
p15
VE:/testinput/pt000064.laz
p16
sS'error_msg'
p17
cexceptions
KeyError
p18
sbsS'2725'
p19
g2
(g3
g4
Ntp20
Rp21
(dp22
g8
I2725
sg9
F1459478937.2
sg10
S'0'
p23
sg12
VE:/FeatureExtractionOutputs/pt000064.tif
p24
sg14
Nsg15
VE:/testinput/pt000064.laz
p25
sg17
g18
sbsS'2737'
p26
g2
(g3
g4
Ntp27
Rp28
(dp29
g8
I2737
sg9
F1459482289.97
sg10
S'0'
p30
sg12
VE:/FeatureExtractionOutputs/pt000064.tif
p31
sg14
Nsg15
VE:/testinput/pt000064.laz
p32
sg17
g18
sbsS'2731'
p33
g2
(g3
g4
Ntp34
Rp35
(dp36
g8
I2731
sg9
F1459481795.621
sg10
S'0'
p37
sg12
VE:/FeatureExtractionOutputs/pt000064.tif
p38
sg14
Nsg15
VE:/testinput/pt000064.laz
p39
sg17
g18
sbsS'2720'
p40
g2
(g3
g4
Ntp41
Rp42
(dp43
g8
I2720
sg9
F1459478797.282
sg10
S'0'
p44
sg12
VE:/FeatureExtractionOutputs/pt000064.tif
p45
sg14
Nsg15
VE:/testinput/pt000064.laz
p46
sg17
g18
sbsS'2763'
p47
g2
(g3
g4
Ntp48
Rp49
(dp50
g8
I2763
sg9
F1459495462.818
sg10
S'0'
p51
sg12
VE:/FeatureExtractionOutputs/pt000023.tif
p52
sg14
F1459495464.233
sg15
VE:/testinput/pt000023.laz
p53
sg17
S'Error'
p54
sbsS'2762'
p55
g2
(g3
g4
Ntp56
Rp57
(dp58
g8
I2762
sg9
F1459495455.891
sg10
S'0'
p59
sg12
VE:/FeatureExtractionOutputs/pt000022.tif
p60
sg14
F1459495457.284
sg15
VE:/testinput/pt000022.laz
p61
sg17
S'Error'
p62
sbsS'2765'
p63
g2
(g3
g4
Ntp64
Rp65
(dp66
g8
I2765
sg9
F1459495481.525
sg10
S'0'
p67
sg12
VE:/FeatureExtractionOutputs/pt000064.tif
p68
sg14
F1459495482.898
sg15
VE:/testinput/pt000064.laz
p69
sg17
S'Error'
p70
sbsS'2728'
p71
g2
(g3
g4
Ntp72
Rp73
(dp74
g8
I2728
sg9
F1459481396.012
sg10
S'0'
p75
sg12
VE:/FeatureExtractionOutputs/pt000064.tif
p76
sg14
Nsg15
VE:/testinput/pt000064.laz
p77
sg17
g18
sbsS'2740'
p78
g2
(g3
g4
Ntp79
Rp80
(dp81
g8
I2740
sg9
F1459490153.744
sg10
S'0'
p82
sg12
VE:/FeatureExtractionOutputs/pt000064.tif
p83
sg14
Nsg15
VE:/testinput/pt000064.laz
p84
sg17
g18
sbsS'2743'
p85
g2
(g3
g4
Ntp86
Rp87
(dp88
g8
I2743
sg9
F1459490786.047
sg10
S'0'
p89
sg12
VE:/FeatureExtractionOutputs/pt000064.tif
p90
sg14
Nsg15
VE:/testinput/pt000064.laz
p91
sg17
g18
sbsS'2755'
p92
g2
(g3
g4
Ntp93
Rp94
(dp95
g8
I2755
sg9
F1459492718.517
sg10
S'0'
p96
sg12
VE:/FeatureExtractionOutputs/pt000064.tif
p97
sg14
F1459492719.938
sg15
VE:/testinput/pt000064.laz
p98
sg17
S'Error'
p99
sbsS'2752'
p100
g2
(g3
g4
Ntp101
Rp102
(dp103
g8
I2752
sg9
F1459492119.383
sg10
S'0'
p104
sg12
VE:/FeatureExtractionOutputs/pt000064.tif
p105
sg14
Nsg15
VE:/testinput/pt000064.laz
p106
sg17
S'Error'
p107
sbsS'2746'
p108
g2
(g3
g4
Ntp109
Rp110
(dp111
g8
I2746
sg9
F1459491088.16
sg10
S'0'
p112
sg12
VE:/FeatureExtractionOutputs/pt000064.tif
p113
sg14
Nsg15
VE:/testinput/pt000064.laz
p114
sg17
g18
sbsS'2749'
p115
g2
(g3
g4
Ntp116
Rp117
(dp118
g8
I2749
sg9
F1459491229.504
sg10
S'0'
p119
sg12
VE:/FeatureExtractionOutputs/pt000064.tif
p120
sg14
Nsg15
VE:/testinput/pt000064.laz
p121
sg17
g18
sbsS'2758'
p122
g2
(g3
g4
Ntp123
Rp124
(dp125
g8
I2758
sg9
F1459493974.132
sg10
S'0'
p126
sg12
VE:/FeatureExtractionOutputs/pt000064.tif
p127
sg14
F1459493975.932
sg15
VE:/testinput/pt000064.laz
p128
sg17
S'Error'
p129
sbsS'2717'
p130
g2
(g3
g4
Ntp131
Rp132
(dp133
g8
I2717
sg9
F1459477784.281
sg10
S'0'
p134
sg12
VE:/FeatureExtractionOutputs/pt000064.tif
p135
sg14
Nsg15
VE:/testinput/pt000064.laz
p136
sg17
g18
sbs.