(dp0
S'1370'
p1
(dp2
S'itemId'
p3
I1370
sS'start_time'
p4
S'Tue Mar 01 15:13:07 2016'
p5
sS'worker_id'
p6
S'1'
p7
sS'output_path'
p8
VC:/bertud_outputs/pt000024.tif
p9
sS'end_time'
p10
S'Tue Mar 01 15:13:17 2016'
p11
sS'path'
p12
VC:/bertud_inputs/pt000024.laz
p13
ssS'1371'
p14
(dp15
S'itemId'
p16
I1371
sS'start_time'
p17
S'Tue Mar 01 15:13:23 2016'
p18
sS'worker_id'
p19
S'1'
p20
sS'output_path'
p21
VC:/bertud_outputs/pt000113.tif
p22
sS'end_time'
p23
S'Tue Mar 01 15:13:33 2016'
p24
sS'path'
p25
VC:/bertud_inputs/pt000113.laz
p26
ssS'1367'
p27
(dp28
S'itemId'
p29
I1367
sS'start_time'
p30
S'Tue Mar 01 15:12:20 2016'
p31
sS'worker_id'
p32
S'1'
p33
sS'output_path'
p34
VC:/bertud_outputs/pt000002.tif
p35
sS'end_time'
p36
S'Tue Mar 01 15:12:30 2016'
p37
sS'path'
p38
VC:/bertud_inputs/pt000002.laz
p39
ssS'1373'
p40
(dp41
S'itemId'
p42
I1373
sS'start_time'
p43
S'Tue Mar 01 15:13:54 2016'
p44
sS'worker_id'
p45
S'1'
p46
sS'output_path'
p47
VC:/bertud_outputs/pt000120.tif
p48
sS'end_time'
p49
S'Tue Mar 01 15:14:05 2016'
p50
sS'path'
p51
VC:/bertud_inputs/pt000120.laz
p52
ssS'1372'
p53
(dp54
S'itemId'
p55
I1372
sS'start_time'
p56
S'Tue Mar 01 15:13:39 2016'
p57
sS'worker_id'
p58
S'1'
p59
sS'output_path'
p60
VC:/bertud_outputs/pt000115.tif
p61
sS'end_time'
p62
S'Tue Mar 01 15:13:49 2016'
p63
sS'path'
p64
VC:/bertud_inputs/pt000115.laz
p65
ssS'1375'
p66
(dp67
S'itemId'
p68
I1375
sS'start_time'
p69
S'Tue Mar 01 15:14:26 2016'
p70
sS'worker_id'
p71
S'1'
p72
sS'output_path'
p73
VC:/bertud_outputs/pt000127.tif
p74
sS'end_time'
p75
S'Tue Mar 01 15:14:36 2016'
p76
sS'path'
p77
VC:/bertud_inputs/pt000127.laz
p78
ssS'1374'
p79
(dp80
S'itemId'
p81
I1374
sS'start_time'
p82
S'Tue Mar 01 15:14:10 2016'
p83
sS'worker_id'
p84
S'1'
p85
sS'output_path'
p86
VC:/bertud_outputs/pt000121.tif
p87
sS'end_time'
p88
S'Tue Mar 01 15:14:20 2016'
p89
sS'path'
p90
VC:/bertud_inputs/pt000121.laz
p91
ssS'1376'
p92
(dp93
S'itemId'
p94
I1376
sS'start_time'
p95
S'Tue Mar 01 15:14:41 2016'
p96
sS'worker_id'
p97
S'1'
p98
sS'output_path'
p99
VC:/bertud_outputs/pt000128.tif
p100
sS'end_time'
p101
S'Tue Mar 01 15:14:52 2016'
p102
sS'path'
p103
VC:/bertud_inputs/pt000128.laz
p104
ssS'1368'
p105
(dp106
S'itemId'
p107
I1368
sS'start_time'
p108
S'Tue Mar 01 15:12:36 2016'
p109
sS'worker_id'
p110
S'1'
p111
sS'output_path'
p112
VC:/bertud_outputs/pt000012.tif
p113
sS'end_time'
p114
S'Tue Mar 01 15:12:46 2016'
p115
sS'path'
p116
VC:/bertud_inputs/pt000012.laz
p117
ssS'1369'
p118
(dp119
S'itemId'
p120
I1369
sS'start_time'
p121
S'Tue Mar 01 15:12:52 2016'
p122
sS'worker_id'
p123
S'1'
p124
sS'output_path'
p125
VC:/bertud_outputs/pt000015.tif
p126
sS'end_time'
p127
S'Tue Mar 01 15:13:02 2016'
p128
sS'path'
p129
VC:/bertud_inputs/pt000015.laz
p130
ss.