(dp0
S'2617'
p1
(dp2
S'itemId'
p3
I2617
sS'start_time'
p4
S'Thu Mar 10 11:21:09 2016'
p5
sS'worker_id'
p6
S'0'
p7
sS'output_path'
p8
VE:/FeatureExtractionOutputs/pt000127.tif
p9
sS'end_time'
p10
S'Thu Mar 10 11:21:19 2016'
p11
sS'path'
p12
VE:/FeatureExtractionV4/pipelinev6/inputs/ground/pt000127.laz
p13
ssS'2616'
p14
(dp15
S'itemId'
p16
I2616
sS'start_time'
p17
S'Thu Mar 10 11:20:53 2016'
p18
sS'worker_id'
p19
S'0'
p20
sS'output_path'
p21
VE:/FeatureExtractionOutputs/pt000121.tif
p22
sS'end_time'
p23
S'Thu Mar 10 11:21:03 2016'
p24
sS'path'
p25
VE:/FeatureExtractionV4/pipelinev6/inputs/ground/pt000121.laz
p26
ssS'2615'
p27
(dp28
S'itemId'
p29
I2615
sS'start_time'
p30
S'Thu Mar 10 11:20:37 2016'
p31
sS'worker_id'
p32
S'0'
p33
sS'output_path'
p34
VE:/FeatureExtractionOutputs/pt000120.tif
p35
sS'end_time'
p36
S'Thu Mar 10 11:20:47 2016'
p37
sS'path'
p38
VE:/FeatureExtractionV4/pipelinev6/inputs/ground/pt000120.laz
p39
ssS'2614'
p40
(dp41
S'itemId'
p42
I2614
sS'start_time'
p43
S'Thu Mar 10 11:20:20 2016'
p44
sS'worker_id'
p45
S'0'
p46
sS'output_path'
p47
VE:/FeatureExtractionOutputs/pt000115.tif
p48
sS'end_time'
p49
S'Thu Mar 10 11:20:31 2016'
p50
sS'path'
p51
VE:/FeatureExtractionV4/pipelinev6/inputs/ground/pt000115.laz
p52
ssS'2613'
p53
(dp54
S'itemId'
p55
I2613
sS'start_time'
p56
S'Thu Mar 10 11:20:04 2016'
p57
sS'worker_id'
p58
S'0'
p59
sS'output_path'
p60
VE:/FeatureExtractionOutputs/pt000113.tif
p61
sS'end_time'
p62
S'Thu Mar 10 11:20:15 2016'
p63
sS'path'
p64
VE:/FeatureExtractionV4/pipelinev6/inputs/ground/pt000113.laz
p65
ssS'2612'
p66
(dp67
S'itemId'
p68
I2612
sS'start_time'
p69
S'Thu Mar 10 11:19:48 2016'
p70
sS'worker_id'
p71
S'0'
p72
sS'output_path'
p73
VE:/FeatureExtractionOutputs/pt000024.tif
p74
sS'end_time'
p75
S'Thu Mar 10 11:19:58 2016'
p76
sS'path'
p77
VE:/FeatureExtractionV4/pipelinev6/inputs/ground/pt000024.laz
p78
ssS'2611'
p79
(dp80
S'itemId'
p81
I2611
sS'start_time'
p82
S'Thu Mar 10 11:19:33 2016'
p83
sS'worker_id'
p84
S'0'
p85
sS'output_path'
p86
VE:/FeatureExtractionOutputs/pt000015.tif
p87
sS'end_time'
p88
S'Thu Mar 10 11:19:43 2016'
p89
sS'path'
p90
VE:/FeatureExtractionV4/pipelinev6/inputs/ground/pt000015.laz
p91
ssS'2610'
p92
(dp93
S'itemId'
p94
I2610
sS'start_time'
p95
S'Thu Mar 10 11:19:17 2016'
p96
sS'worker_id'
p97
S'0'
p98
sS'output_path'
p99
VE:/FeatureExtractionOutputs/pt000012.tif
p100
sS'end_time'
p101
S'Thu Mar 10 11:19:27 2016'
p102
sS'path'
p103
VE:/FeatureExtractionV4/pipelinev6/inputs/ground/pt000012.laz
p104
ssS'2609'
p105
(dp106
S'itemId'
p107
I2609
sS'start_time'
p108
S'Thu Mar 10 11:19:01 2016'
p109
sS'worker_id'
p110
S'0'
p111
sS'output_path'
p112
VE:/FeatureExtractionOutputs/pt000002.tif
p113
sS'end_time'
p114
S'Thu Mar 10 11:19:11 2016'
p115
sS'path'
p116
VE:/FeatureExtractionV4/pipelinev6/inputs/ground/pt000002.laz
p117
ssS'2618'
p118
(dp119
S'itemId'
p120
I2618
sS'start_time'
p121
S'Thu Mar 10 11:21:25 2016'
p122
sS'worker_id'
p123
S'0'
p124
sS'output_path'
p125
VE:/FeatureExtractionOutputs/pt000128.tif
p126
sS'end_time'
p127
S'Thu Mar 10 11:21:35 2016'
p128
sS'path'
p129
VE:/FeatureExtractionV4/pipelinev6/inputs/ground/pt000128.laz
p130
ss.