(dp0
S'1159'
p1
ccopy_reg
_reconstructor
p2
(cworkitem
Workitem
p3
c__builtin__
object
p4
Ntp5
Rp6
(dp7
S'itemId'
p8
I1159
sS'start_time'
p9
F1456126892.438
sS'worker_id'
p10
S'1'
p11
sS'output_path'
p12
VE:/FeatureExtractionOutputs/pt000120.tif
p13
sS'end_time'
p14
F1456126902.481
sS'path'
p15
VE:/FeatureExtractionV4/pipelinev6/inputs/ground/pt000120.laz
p16
sbsS'1158'
p17
g2
(g3
g4
Ntp18
Rp19
(dp20
g8
I1158
sg9
F1456126882.094
sg10
S'1'
p21
sg12
VE:/FeatureExtractionOutputs/pt000115.tif
p22
sg14
F1456126892.116
sg15
VE:/FeatureExtractionV4/pipelinev6/inputs/ground/pt000115.laz
p23
sbsS'1162'
p24
g2
(g3
g4
Ntp25
Rp26
(dp27
g8
I1162
sg9
F1456126923.543
sg10
S'1'
p28
sg12
VE:/FeatureExtractionOutputs/pt000128.tif
p29
sg14
F1456126933.582
sg15
VE:/FeatureExtractionV4/pipelinev6/inputs/ground/pt000128.laz
p30
sbsS'1155'
p31
g2
(g3
g4
Ntp32
Rp33
(dp34
g8
I1155
sg9
F1456126851.13
sg10
S'1'
p35
sg12
VE:/FeatureExtractionOutputs/pt000015.tif
p36
sg14
F1456126861.157
sg15
VE:/FeatureExtractionV4/pipelinev6/inputs/ground/pt000015.laz
p37
sbsS'1154'
p38
g2
(g3
g4
Ntp39
Rp40
(dp41
g8
I1154
sg9
F1456126840.843
sg10
S'1'
p42
sg12
VE:/FeatureExtractionOutputs/pt000012.tif
p43
sg14
F1456126850.863
sg15
VE:/FeatureExtractionV4/pipelinev6/inputs/ground/pt000012.laz
p44
sbsS'1157'
p45
g2
(g3
g4
Ntp46
Rp47
(dp48
g8
I1157
sg9
F1456126871.755
sg10
S'1'
p49
sg12
VE:/FeatureExtractionOutputs/pt000113.tif
p50
sg14
F1456126881.802
sg15
VE:/FeatureExtractionV4/pipelinev6/inputs/ground/pt000113.laz
p51
sbsS'1156'
p52
g2
(g3
g4
Ntp53
Rp54
(dp55
g8
I1156
sg9
F1456126861.41
sg10
S'1'
p56
sg12
VE:/FeatureExtractionOutputs/pt000024.tif
p57
sg14
F1456126871.449
sg15
VE:/FeatureExtractionV4/pipelinev6/inputs/ground/pt000024.laz
p58
sbsS'1153'
p59
g2
(g3
g4
Ntp60
Rp61
(dp62
g8
I1153
sg9
F1456126830.525
sg10
S'1'
p63
sg12
VE:/FeatureExtractionOutputs/pt000002.tif
p64
sg14
F1456126840.565
sg15
VE:/FeatureExtractionV4/pipelinev6/inputs/ground/pt000002.laz
p65
sbsS'1160'
p66
g2
(g3
g4
Ntp67
Rp68
(dp69
g8
I1160
sg9
F1456126902.784
sg10
S'1'
p70
sg12
VE:/FeatureExtractionOutputs/pt000121.tif
p71
sg14
F1456126912.835
sg15
VE:/FeatureExtractionV4/pipelinev6/inputs/ground/pt000121.laz
p72
sbsS'1161'
p73
g2
(g3
g4
Ntp74
Rp75
(dp76
g8
I1161
sg9
F1456126913.158
sg10
S'1'
p77
sg12
VE:/FeatureExtractionOutputs/pt000127.tif
p78
sg14
F1456126923.218
sg15
VE:/FeatureExtractionV4/pipelinev6/inputs/ground/pt000127.laz
p79
sbs.