(dp0
S'1515'
p1
(dp2
S'itemId'
p3
I1515
sS'start_time'
p4
S'Wed Mar 02 15:48:09 2016'
p5
sS'worker_id'
p6
S'1'
p7
sS'output_path'
p8
VE:/FeatureExtractionOutputs/pt000120.tif
p9
sS'end_time'
p10
S'Wed Mar 02 15:48:19 2016'
p11
sS'path'
p12
VE:/FeatureExtractionV4/pipelinev6/inputs/ground/pt000120.laz
p13
ssS'1514'
p14
(dp15
S'itemId'
p16
I1514
sS'start_time'
p17
S'Wed Mar 02 15:47:53 2016'
p18
sS'worker_id'
p19
S'1'
p20
sS'output_path'
p21
VE:/FeatureExtractionOutputs/pt000115.tif
p22
sS'end_time'
p23
S'Wed Mar 02 15:48:03 2016'
p24
sS'path'
p25
VE:/FeatureExtractionV4/pipelinev6/inputs/ground/pt000115.laz
p26
ssS'1517'
p27
(dp28
S'itemId'
p29
I1517
sS'start_time'
p30
S'Wed Mar 02 15:48:39 2016'
p31
sS'worker_id'
p32
S'1'
p33
sS'output_path'
p34
VE:/FeatureExtractionOutputs/pt000127.tif
p35
sS'end_time'
p36
S'Wed Mar 02 15:48:49 2016'
p37
sS'path'
p38
VE:/FeatureExtractionV4/pipelinev6/inputs/ground/pt000127.laz
p39
ssS'1516'
p40
(dp41
S'itemId'
p42
I1516
sS'start_time'
p43
S'Wed Mar 02 15:48:24 2016'
p44
sS'worker_id'
p45
S'1'
p46
sS'output_path'
p47
VE:/FeatureExtractionOutputs/pt000121.tif
p48
sS'end_time'
p49
S'Wed Mar 02 15:48:34 2016'
p50
sS'path'
p51
VE:/FeatureExtractionV4/pipelinev6/inputs/ground/pt000121.laz
p52
ssS'1511'
p53
(dp54
S'itemId'
p55
I1511
sS'start_time'
p56
S'Wed Mar 02 15:47:23 2016'
p57
sS'worker_id'
p58
S'1'
p59
sS'output_path'
p60
VE:/FeatureExtractionOutputs/pt000015.tif
p61
sS'end_time'
p62
S'Wed Mar 02 15:47:33 2016'
p63
sS'path'
p64
VE:/FeatureExtractionV4/pipelinev6/inputs/ground/pt000015.laz
p65
ssS'1510'
p66
(dp67
S'itemId'
p68
I1510
sS'start_time'
p69
S'Wed Mar 02 15:47:07 2016'
p70
sS'worker_id'
p71
S'1'
p72
sS'output_path'
p73
VE:/FeatureExtractionOutputs/pt000012.tif
p74
sS'end_time'
p75
S'Wed Mar 02 15:47:17 2016'
p76
sS'path'
p77
VE:/FeatureExtractionV4/pipelinev6/inputs/ground/pt000012.laz
p78
ssS'1513'
p79
(dp80
S'itemId'
p81
I1513
sS'start_time'
p82
S'Wed Mar 02 15:47:38 2016'
p83
sS'worker_id'
p84
S'1'
p85
sS'output_path'
p86
VE:/FeatureExtractionOutputs/pt000113.tif
p87
sS'end_time'
p88
S'Wed Mar 02 15:47:48 2016'
p89
sS'path'
p90
VE:/FeatureExtractionV4/pipelinev6/inputs/ground/pt000113.laz
p91
ss.