(dp0
S'816'
p1
ccopy_reg
_reconstructor
p2
(cworkitem
Workitem
p3
c__builtin__
object
p4
Ntp5
Rp6
(dp7
S'itemId'
p8
I816
sS'start_time'
p9
F1455881889.749
sS'worker_id'
p10
S'1'
p11
sS'output_path'
p12
VE:/FeatureExtractionOutputs/pt000015.tif
p13
sS'end_time'
p14
F1455881889.768
sS'path'
p15
VE:/testinput/pt000015.laz
p16
sbsS'817'
p17
g2
(g3
g4
Ntp18
Rp19
(dp20
g8
I817
sg9
F1455881890.033
sg10
S'1'
p21
sg12
VE:/FeatureExtractionOutputs/pt000015.tif
p22
sg14
F1455881890.052
sg15
VE:/testinput/pt000015.laz
p23
sbs.