(dp0
S'1304'
p1
(dp2
S'itemId'
p3
I1304
sS'start_time'
p4
S'Mon Feb 22 17:52:23 2016'
p5
sS'worker_id'
p6
S'1'
p7
sS'output_path'
p8
VE:/FeatureExtractionOutputs/pt000012.tif
p9
sS'end_time'
p10
S'Mon Feb 22 17:52:33 2016'
p11
sS'path'
p12
VE:/FeatureExtractionV4/pipelinev6/inputs/ground/pt000012.laz
p13
ssS'1305'
p14
(dp15
S'itemId'
p16
I1305
sS'start_time'
p17
S'Mon Feb 22 17:52:39 2016'
p18
sS'worker_id'
p19
S'1'
p20
sS'output_path'
p21
VE:/FeatureExtractionOutputs/pt000015.tif
p22
sS'end_time'
p23
S'Mon Feb 22 17:52:49 2016'
p24
sS'path'
p25
VE:/FeatureExtractionV4/pipelinev6/inputs/ground/pt000015.laz
p26
ssS'1306'
p27
(dp28
S'itemId'
p29
I1306
sS'start_time'
p30
S'Mon Feb 22 17:52:54 2016'
p31
sS'worker_id'
p32
S'1'
p33
sS'output_path'
p34
VE:/FeatureExtractionOutputs/pt000024.tif
p35
sS'end_time'
p36
S'Mon Feb 22 17:53:04 2016'
p37
sS'path'
p38
VE:/FeatureExtractionV4/pipelinev6/inputs/ground/pt000024.laz
p39
ssS'1307'
p40
(dp41
S'itemId'
p42
I1307
sS'start_time'
p43
S'Mon Feb 22 17:53:09 2016'
p44
sS'worker_id'
p45
S'1'
p46
sS'output_path'
p47
VE:/FeatureExtractionOutputs/pt000113.tif
p48
sS'end_time'
p49
S'Mon Feb 22 17:53:19 2016'
p50
sS'path'
p51
VE:/FeatureExtractionV4/pipelinev6/inputs/ground/pt000113.laz
p52
ssS'1312'
p53
(dp54
S'itemId'
p55
I1312
sS'start_time'
p56
S'Mon Feb 22 17:54:27 2016'
p57
sS'worker_id'
p58
S'1'
p59
sS'output_path'
p60
VE:/FeatureExtractionOutputs/pt000128.tif
p61
sS'end_time'
p62
S'Mon Feb 22 17:54:37 2016'
p63
sS'path'
p64
VE:/FeatureExtractionV4/pipelinev6/inputs/ground/pt000128.laz
p65
ssS'1311'
p66
(dp67
S'itemId'
p68
I1311
sS'start_time'
p69
S'Mon Feb 22 17:54:11 2016'
p70
sS'worker_id'
p71
S'1'
p72
sS'output_path'
p73
VE:/FeatureExtractionOutputs/pt000127.tif
p74
sS'end_time'
p75
S'Mon Feb 22 17:54:21 2016'
p76
sS'path'
p77
VE:/FeatureExtractionV4/pipelinev6/inputs/ground/pt000127.laz
p78
ssS'1310'
p79
(dp80
S'itemId'
p81
I1310
sS'start_time'
p82
S'Mon Feb 22 17:53:56 2016'
p83
sS'worker_id'
p84
S'1'
p85
sS'output_path'
p86
VE:/FeatureExtractionOutputs/pt000121.tif
p87
sS'end_time'
p88
S'Mon Feb 22 17:54:06 2016'
p89
sS'path'
p90
VE:/FeatureExtractionV4/pipelinev6/inputs/ground/pt000121.laz
p91
ssS'1303'
p92
(dp93
S'itemId'
p94
I1303
sS'start_time'
p95
S'Mon Feb 22 17:52:08 2016'
p96
sS'worker_id'
p97
S'1'
p98
sS'output_path'
p99
VE:/FeatureExtractionOutputs/pt000002.tif
p100
sS'end_time'
p101
S'Mon Feb 22 17:52:18 2016'
p102
sS'path'
p103
VE:/FeatureExtractionV4/pipelinev6/inputs/ground/pt000002.laz
p104
ssS'1308'
p105
(dp106
S'itemId'
p107
I1308
sS'start_time'
p108
S'Mon Feb 22 17:53:25 2016'
p109
sS'worker_id'
p110
S'1'
p111
sS'output_path'
p112
VE:/FeatureExtractionOutputs/pt000115.tif
p113
sS'end_time'
p114
S'Mon Feb 22 17:53:35 2016'
p115
sS'path'
p116
VE:/FeatureExtractionV4/pipelinev6/inputs/ground/pt000115.laz
p117
ssS'1309'
p118
(dp119
S'itemId'
p120
I1309
sS'start_time'
p121
S'Mon Feb 22 17:53:40 2016'
p122
sS'worker_id'
p123
S'1'
p124
sS'output_path'
p125
VE:/FeatureExtractionOutputs/pt000120.tif
p126
sS'end_time'
p127
S'Mon Feb 22 17:53:50 2016'
p128
sS'path'
p129
VE:/FeatureExtractionV4/pipelinev6/inputs/ground/pt000120.laz
p130
ss.