(dp0
S'1062'
p1
ccopy_reg
_reconstructor
p2
(cworkitem
Workitem
p3
c__builtin__
object
p4
Ntp5
Rp6
(dp7
S'itemId'
p8
I1062
sS'start_time'
p9
F1456111656.057
sS'worker_id'
p10
S'1'
p11
sS'output_path'
p12
VE:/FeatureExtractionOutputs/pt000128.tif
p13
sS'end_time'
p14
F1456111666.177
sS'path'
p15
VE:/FeatureExtractionV4/pipelinev6/inputs/ground/pt000128.laz
p16
sbsS'1050'
p17
g2
(g3
g4
Ntp18
Rp19
(dp20
g8
I1050
sg9
F1456111500.907
sg10
S'1'
p21
sg12
VE:/FeatureExtractionOutputs/pt000121.tif
p22
sg14
F1456111510.963
sg15
VE:/FeatureExtractionV4/pipelinev6/inputs/ground/pt000121.laz
p23
sbsS'1051'
p24
g2
(g3
g4
Ntp25
Rp26
(dp27
g8
I1051
sg9
F1456111511.313
sg10
S'1'
p28
sg12
VE:/FeatureExtractionOutputs/pt000127.tif
p29
sg14
F1456111521.433
sg15
VE:/FeatureExtractionV4/pipelinev6/inputs/ground/pt000127.laz
p30
sbsS'1052'
p31
g2
(g3
g4
Ntp32
Rp33
(dp34
g8
I1052
sg9
F1456111521.753
sg10
S'1'
p35
sg12
VE:/FeatureExtractionOutputs/pt000128.tif
p36
sg14
F1456111531.828
sg15
VE:/FeatureExtractionV4/pipelinev6/inputs/ground/pt000128.laz
p37
sbsS'1053'
p38
g2
(g3
g4
Ntp39
Rp40
(dp41
g8
I1053
sg9
F1456111562.726
sg10
S'1'
p42
sg12
VE:/FeatureExtractionOutputs/pt000002.tif
p43
sg14
F1456111572.766
sg15
VE:/FeatureExtractionV4/pipelinev6/inputs/ground/pt000002.laz
p44
sbsS'1054'
p45
g2
(g3
g4
Ntp46
Rp47
(dp48
g8
I1054
sg9
F1456111573.026
sg10
S'1'
p49
sg12
VE:/FeatureExtractionOutputs/pt000012.tif
p50
sg14
F1456111583.071
sg15
VE:/FeatureExtractionV4/pipelinev6/inputs/ground/pt000012.laz
p51
sbsS'1055'
p52
g2
(g3
g4
Ntp53
Rp54
(dp55
g8
I1055
sg9
F1456111583.331
sg10
S'1'
p56
sg12
VE:/FeatureExtractionOutputs/pt000015.tif
p57
sg14
F1456111593.376
sg15
VE:/FeatureExtractionV4/pipelinev6/inputs/ground/pt000015.laz
p58
sbsS'1056'
p59
g2
(g3
g4
Ntp60
Rp61
(dp62
g8
I1056
sg9
F1456111593.643
sg10
S'1'
p63
sg12
VE:/FeatureExtractionOutputs/pt000024.tif
p64
sg14
F1456111603.676
sg15
VE:/FeatureExtractionV4/pipelinev6/inputs/ground/pt000024.laz
p65
sbsS'1057'
p66
g2
(g3
g4
Ntp67
Rp68
(dp69
g8
I1057
sg9
F1456111603.976
sg10
S'1'
p70
sg12
VE:/FeatureExtractionOutputs/pt000113.tif
p71
sg14
F1456111614.041
sg15
VE:/FeatureExtractionV4/pipelinev6/inputs/ground/pt000113.laz
p72
sbsS'1058'
p73
g2
(g3
g4
Ntp74
Rp75
(dp76
g8
I1058
sg9
F1456111614.351
sg10
S'1'
p77
sg12
VE:/FeatureExtractionOutputs/pt000115.tif
p78
sg14
F1456111624.397
sg15
VE:/FeatureExtractionV4/pipelinev6/inputs/ground/pt000115.laz
p79
sbsS'1059'
p80
g2
(g3
g4
Ntp81
Rp82
(dp83
g8
I1059
sg9
F1456111624.723
sg10
S'1'
p84
sg12
VE:/FeatureExtractionOutputs/pt000120.tif
p85
sg14
F1456111634.862
sg15
VE:/FeatureExtractionV4/pipelinev6/inputs/ground/pt000120.laz
p86
sbsS'1038'
p87
g2
(g3
g4
Ntp88
Rp89
(dp90
g8
I1038
sg9
F1456111364.924
sg10
S'1'
p91
sg12
VE:/FeatureExtractionOutputs/pt000115.tif
p92
sg14
F1456111374.956
sg15
VE:/FeatureExtractionV4/pipelinev6/inputs/ground/pt000115.laz
p93
sbsS'1039'
p94
g2
(g3
g4
Ntp95
Rp96
(dp97
g8
I1039
sg9
F1456111375.286
sg10
S'1'
p98
sg12
VE:/FeatureExtractionOutputs/pt000120.tif
p99
sg14
F1456111385.356
sg15
VE:/FeatureExtractionV4/pipelinev6/inputs/ground/pt000120.laz
p100
sbsS'1032'
p101
g2
(g3
g4
Ntp102
Rp103
(dp104
g8
I1032
sg9
F1456110936.804
sg10
S'1'
p105
sg12
VE:/FeatureExtractionOutputs/pt000128.tif
p106
sg14
F1456110946.857
sg15
VE:/FeatureExtractionV4/pipelinev6/inputs/ground/pt000128.laz
p107
sbsS'1033'
p108
g2
(g3
g4
Ntp109
Rp110
(dp111
g8
I1033
sg9
F1456111313.32
sg10
S'1'
p112
sg12
VE:/FeatureExtractionOutputs/pt000002.tif
p113
sg14
F1456111323.36
sg15
VE:/FeatureExtractionV4/pipelinev6/inputs/ground/pt000002.laz
p114
sbsS'1030'
p115
g2
(g3
g4
Ntp116
Rp117
(dp118
g8
I1030
sg9
F1456110915.975
sg10
S'1'
p119
sg12
VE:/FeatureExtractionOutputs/pt000121.tif
p120
sg14
F1456110926.029
sg15
VE:/FeatureExtractionV4/pipelinev6/inputs/ground/pt000121.laz
p121
sbsS'1031'
p122
g2
(g3
g4
Ntp123
Rp124
(dp125
g8
I1031
sg9
F1456110926.353
sg10
S'1'
p126
sg12
VE:/FeatureExtractionOutputs/pt000127.tif
p127
sg14
F1456110936.489
sg15
VE:/FeatureExtractionV4/pipelinev6/inputs/ground/pt000127.laz
p128
sbsS'1036'
p129
g2
(g3
g4
Ntp130
Rp131
(dp132
g8
I1036
sg9
F1456111344.257
sg10
S'1'
p133
sg12
VE:/FeatureExtractionOutputs/pt000024.tif
p134
sg14
F1456111354.292
sg15
VE:/FeatureExtractionV4/pipelinev6/inputs/ground/pt000024.laz
p135
sbsS'1037'
p136
g2
(g3
g4
Ntp137
Rp138
(dp139
g8
I1037
sg9
F1456111354.594
sg10
S'1'
p140
sg12
VE:/FeatureExtractionOutputs/pt000113.tif
p141
sg14
F1456111364.644
sg15
VE:/FeatureExtractionV4/pipelinev6/inputs/ground/pt000113.laz
p142
sbsS'1034'
p143
g2
(g3
g4
Ntp144
Rp145
(dp146
g8
I1034
sg9
F1456111323.644
sg10
S'1'
p147
sg12
VE:/FeatureExtractionOutputs/pt000012.tif
p148
sg14
F1456111333.68
sg15
VE:/FeatureExtractionV4/pipelinev6/inputs/ground/pt000012.laz
p149
sbsS'1035'
p150
g2
(g3
g4
Ntp151
Rp152
(dp153
g8
I1035
sg9
F1456111333.94
sg10
S'1'
p154
sg12
VE:/FeatureExtractionOutputs/pt000015.tif
p155
sg14
F1456111343.988
sg15
VE:/FeatureExtractionV4/pipelinev6/inputs/ground/pt000015.laz
p156
sbsS'1025'
p157
g2
(g3
g4
Ntp158
Rp159
(dp160
g8
I1025
sg9
F1456110864.259
sg10
S'1'
p161
sg12
VE:/FeatureExtractionOutputs/pt000015.tif
p162
sg14
F1456110874.289
sg15
VE:/FeatureExtractionV4/pipelinev6/inputs/ground/pt000015.laz
p163
sbsS'1042'
p164
g2
(g3
g4
Ntp165
Rp166
(dp167
g8
I1042
sg9
F1456111406.464
sg10
S'1'
p168
sg12
VE:/FeatureExtractionOutputs/pt000128.tif
p169
sg14
F1456111416.529
sg15
VE:/FeatureExtractionV4/pipelinev6/inputs/ground/pt000128.laz
p170
sbsS'1027'
p171
g2
(g3
g4
Ntp172
Rp173
(dp174
g8
I1027
sg9
F1456110884.848
sg10
S'1'
p175
sg12
VE:/FeatureExtractionOutputs/pt000113.tif
p176
sg14
F1456110894.906
sg15
VE:/FeatureExtractionV4/pipelinev6/inputs/ground/pt000113.laz
p177
sbsS'1040'
p178
g2
(g3
g4
Ntp179
Rp180
(dp181
g8
I1040
sg9
F1456111385.669
sg10
S'1'
p182
sg12
VE:/FeatureExtractionOutputs/pt000121.tif
p183
sg14
F1456111395.732
sg15
VE:/FeatureExtractionV4/pipelinev6/inputs/ground/pt000121.laz
p184
sbsS'1043'
p185
g2
(g3
g4
Ntp186
Rp187
(dp188
g8
I1043
sg9
F1456111428.428
sg10
S'1'
p189
sg12
VE:/FeatureExtractionOutputs/pt000002.tif
p190
sg14
F1456111438.465
sg15
VE:/FeatureExtractionV4/pipelinev6/inputs/ground/pt000002.laz
p191
sbsS'1024'
p192
g2
(g3
g4
Ntp193
Rp194
(dp195
g8
I1024
sg9
F1456110853.952
sg10
S'1'
p196
sg12
VE:/FeatureExtractionOutputs/pt000012.tif
p197
sg14
F1456110863.999
sg15
VE:/FeatureExtractionV4/pipelinev6/inputs/ground/pt000012.laz
p198
sbsS'1041'
p199
g2
(g3
g4
Ntp200
Rp201
(dp202
g8
I1041
sg9
F1456111396.073
sg10
S'1'
p203
sg12
VE:/FeatureExtractionOutputs/pt000127.tif
p204
sg14
F1456111406.152
sg15
VE:/FeatureExtractionV4/pipelinev6/inputs/ground/pt000127.laz
p205
sbsS'1026'
p206
g2
(g3
g4
Ntp207
Rp208
(dp209
g8
I1026
sg9
F1456110874.532
sg10
S'1'
p210
sg12
VE:/FeatureExtractionOutputs/pt000024.tif
p211
sg14
F1456110884.559
sg15
VE:/FeatureExtractionV4/pipelinev6/inputs/ground/pt000024.laz
p212
sbsS'1047'
p213
g2
(g3
g4
Ntp214
Rp215
(dp216
g8
I1047
sg9
F1456111469.73
sg10
S'1'
p217
sg12
VE:/FeatureExtractionOutputs/pt000113.tif
p218
sg14
F1456111479.772
sg15
VE:/FeatureExtractionV4/pipelinev6/inputs/ground/pt000113.laz
p219
sbsS'1046'
p220
g2
(g3
g4
Ntp221
Rp222
(dp223
g8
I1046
sg9
F1456111459.371
sg10
S'1'
p224
sg12
VE:/FeatureExtractionOutputs/pt000024.tif
p225
sg14
F1456111469.42
sg15
VE:/FeatureExtractionV4/pipelinev6/inputs/ground/pt000024.laz
p226
sbsS'1045'
p227
g2
(g3
g4
Ntp228
Rp229
(dp230
g8
I1045
sg9
F1456111449.045
sg10
S'1'
p231
sg12
VE:/FeatureExtractionOutputs/pt000015.tif
p232
sg14
F1456111459.091
sg15
VE:/FeatureExtractionV4/pipelinev6/inputs/ground/pt000015.laz
p233
sbsS'1044'
p234
g2
(g3
g4
Ntp235
Rp236
(dp237
g8
I1044
sg9
F1456111438.715
sg10
S'1'
p238
sg12
VE:/FeatureExtractionOutputs/pt000012.tif
p239
sg14
F1456111448.775
sg15
VE:/FeatureExtractionV4/pipelinev6/inputs/ground/pt000012.laz
p240
sbsS'1061'
p241
g2
(g3
g4
Ntp242
Rp243
(dp244
g8
I1061
sg9
F1456111645.609
sg10
S'1'
p245
sg12
VE:/FeatureExtractionOutputs/pt000127.tif
p246
sg14
F1456111655.747
sg15
VE:/FeatureExtractionV4/pipelinev6/inputs/ground/pt000127.laz
p247
sbsS'1060'
p248
g2
(g3
g4
Ntp249
Rp250
(dp251
g8
I1060
sg9
F1456111635.192
sg10
S'1'
p252
sg12
VE:/FeatureExtractionOutputs/pt000121.tif
p253
sg14
F1456111645.246
sg15
VE:/FeatureExtractionV4/pipelinev6/inputs/ground/pt000121.laz
p254
sbsS'1049'
p255
g2
(g3
g4
Ntp256
Rp257
(dp258
g8
I1049
sg9
F1456111490.451
sg10
S'1'
p259
sg12
VE:/FeatureExtractionOutputs/pt000120.tif
p260
sg14
F1456111500.587
sg15
VE:/FeatureExtractionV4/pipelinev6/inputs/ground/pt000120.laz
p261
sbsS'1048'
p262
g2
(g3
g4
Ntp263
Rp264
(dp265
g8
I1048
sg9
F1456111480.052
sg10
S'1'
p266
sg12
VE:/FeatureExtractionOutputs/pt000115.tif
p267
sg14
F1456111490.109
sg15
VE:/FeatureExtractionV4/pipelinev6/inputs/ground/pt000115.laz
p268
sbsS'1029'
p269
g2
(g3
g4
Ntp270
Rp271
(dp272
g8
I1029
sg9
F1456110905.565
sg10
S'1'
p273
sg12
VE:/FeatureExtractionOutputs/pt000120.tif
p274
sg14
F1456110915.675
sg15
VE:/FeatureExtractionV4/pipelinev6/inputs/ground/pt000120.laz
p275
sbsS'1028'
p276
g2
(g3
g4
Ntp277
Rp278
(dp279
g8
I1028
sg9
F1456110895.205
sg10
S'1'
p280
sg12
VE:/FeatureExtractionOutputs/pt000115.tif
p281
sg14
F1456110905.242
sg15
VE:/FeatureExtractionV4/pipelinev6/inputs/ground/pt000115.laz
p282
sbsS'1023'
p283
g2
(g3
g4
Ntp284
Rp285
(dp286
g8
I1023
sg9
F1456110843.644
sg10
S'1'
p287
sg12
VE:/FeatureExtractionOutputs/pt000002.tif
p288
sg14
F1456110853.696
sg15
VE:/FeatureExtractionV4/pipelinev6/inputs/ground/pt000002.laz
p289
sbs.