(dp0
S'1269'
p1
ccopy_reg
_reconstructor
p2
(cworkitem
Workitem
p3
c__builtin__
object
p4
Ntp5
Rp6
(dp7
S'itemId'
p8
I1269
sS'start_time'
p9
F1456130492.312
sS'worker_id'
p10
S'1'
p11
sS'output_path'
p12
VE:/FeatureExtractionOutputs/pt000120.tif
p13
sS'end_time'
p14
F1456130502.38
sS'path'
p15
VE:/FeatureExtractionV4/pipelinev6/inputs/ground/pt000120.laz
p16
sbsS'1268'
p17
g2
(g3
g4
Ntp18
Rp19
(dp20
g8
I1268
sg9
F1456130476.836
sg10
S'1'
p21
sg12
VE:/FeatureExtractionOutputs/pt000115.tif
p22
sg14
F1456130486.898
sg15
VE:/FeatureExtractionV4/pipelinev6/inputs/ground/pt000115.laz
p23
sbsS'1263'
p24
g2
(g3
g4
Ntp25
Rp26
(dp27
g8
I1263
sg9
F1456130399.967
sg10
S'1'
p28
sg12
VE:/FeatureExtractionOutputs/pt000002.tif
p29
sg14
F1456130410.016
sg15
VE:/FeatureExtractionV4/pipelinev6/inputs/ground/pt000002.laz
p30
sbsS'1267'
p31
g2
(g3
g4
Ntp32
Rp33
(dp34
g8
I1267
sg9
F1456130461.455
sg10
S'1'
p35
sg12
VE:/FeatureExtractionOutputs/pt000113.tif
p36
sg14
F1456130471.512
sg15
VE:/FeatureExtractionV4/pipelinev6/inputs/ground/pt000113.laz
p37
sbsS'1266'
p38
g2
(g3
g4
Ntp39
Rp40
(dp41
g8
I1266
sg9
F1456130446.072
sg10
S'1'
p42
sg12
VE:/FeatureExtractionOutputs/pt000024.tif
p43
sg14
F1456130456.105
sg15
VE:/FeatureExtractionV4/pipelinev6/inputs/ground/pt000024.laz
p44
sbsS'1265'
p45
g2
(g3
g4
Ntp46
Rp47
(dp48
g8
I1265
sg9
F1456130430.675
sg10
S'1'
p49
sg12
VE:/FeatureExtractionOutputs/pt000015.tif
p50
sg14
F1456130440.721
sg15
VE:/FeatureExtractionV4/pipelinev6/inputs/ground/pt000015.laz
p51
sbsS'1264'
p52
g2
(g3
g4
Ntp53
Rp54
(dp55
g8
I1264
sg9
F1456130415.322
sg10
S'1'
p56
sg12
VE:/FeatureExtractionOutputs/pt000012.tif
p57
sg14
F1456130425.37
sg15
VE:/FeatureExtractionV4/pipelinev6/inputs/ground/pt000012.laz
p58
sbs.