(dp0
S'2713'
p1
(dp2
S'itemId'
p3
I2713
sS'start_time'
p4
S'Thu Mar 31 11:55:32 2016'
p5
sS'worker_id'
p6
S'0'
p7
sS'output_path'
p8
VE:\u005cFeatureExtraction_Sumagui\u005cOutputs_Mindoro_Blk28E/pt000193.tif
p9
sS'end_time'
p10
S'Thu Mar 31 11:58:00 2016'
p11
sS'path'
p12
VE:\u005cFeatureExtraction_Sumagui\u005cLAZ_Mindoro_Blk28E/pt000193.laz
p13
ssS'2710'
p14
(dp15
S'itemId'
p16
I2710
sS'start_time'
p17
S'Thu Mar 31 11:53:24 2016'
p18
sS'worker_id'
p19
S'2'
p20
sS'output_path'
p21
VE:\u005cFeatureExtraction_Sumagui\u005cOutputs_Mindoro_Blk28E/pt000186.tif
p22
sS'end_time'
p23
S'Thu Mar 31 11:55:55 2016'
p24
sS'path'
p25
VE:\u005cFeatureExtraction_Sumagui\u005cLAZ_Mindoro_Blk28E/pt000186.laz
p26
ssS'2711'
p27
(dp28
S'itemId'
p29
I2711
sS'start_time'
p30
S'Thu Mar 31 11:53:46 2016'
p31
sS'worker_id'
p32
S'0'
p33
sS'output_path'
p34
VE:\u005cFeatureExtraction_Sumagui\u005cOutputs_Mindoro_Blk28E/pt000191.tif
p35
sS'end_time'
p36
S'Thu Mar 31 11:55:26 2016'
p37
sS'path'
p38
VE:\u005cFeatureExtraction_Sumagui\u005cLAZ_Mindoro_Blk28E/pt000191.laz
p39
ssS'2716'
p40
(dp41
S'itemId'
p42
I2716
sS'start_time'
p43
S'Thu Mar 31 11:58:05 2016'
p44
sS'worker_id'
p45
S'0'
p46
sS'output_path'
p47
VE:\u005cFeatureExtraction_Sumagui\u005cOutputs_Mindoro_Blk28E/pt000196.tif
p48
sS'end_time'
p49
S'Thu Mar 31 11:59:33 2016'
p50
sS'path'
p51
VE:\u005cFeatureExtraction_Sumagui\u005cLAZ_Mindoro_Blk28E/pt000196.laz
p52
ssS'2714'
p53
(dp54
S'itemId'
p55
I2714
sS'start_time'
p56
S'Thu Mar 31 11:56:53 2016'
p57
sS'worker_id'
p58
S'1'
p59
sS'output_path'
p60
VE:\u005cFeatureExtraction_Sumagui\u005cOutputs_Mindoro_Blk28E/pt000194.tif
p61
sS'end_time'
p62
S'Thu Mar 31 12:03:10 2016'
p63
sS'path'
p64
VE:\u005cFeatureExtraction_Sumagui\u005cLAZ_Mindoro_Blk28E/pt000194.laz
p65
ssS'2715'
p66
(dp67
S'itemId'
p68
I2715
sS'start_time'
p69
S'Thu Mar 31 11:57:19 2016'
p70
sS'worker_id'
p71
S'2'
p72
sS'output_path'
p73
VE:\u005cFeatureExtraction_Sumagui\u005cOutputs_Mindoro_Blk28E/pt000195.tif
p74
sS'end_time'
p75
S'Thu Mar 31 11:58:26 2016'
p76
sS'path'
p77
VE:\u005cFeatureExtraction_Sumagui\u005cLAZ_Mindoro_Blk28E/pt000195.laz
p78
ssS'2653'
p79
(dp80
S'itemId'
p81
I2653
sS'start_time'
p82
S'Thu Mar 31 11:14:10 2016'
p83
sS'worker_id'
p84
S'0'
p85
sS'output_path'
p86
VE:\u005cFeatureExtraction_Sumagui\u005cOutputs_Mindoro_Blk28E/pt000078.tif
p87
sS'end_time'
p88
S'Thu Mar 31 11:17:12 2016'
p89
sS'path'
p90
VE:\u005cFeatureExtraction_Sumagui\u005cLAZ_Mindoro_Blk28E/pt000078.laz
p91
ssS'2652'
p92
(dp93
S'itemId'
p94
I2652
sS'start_time'
p95
S'Thu Mar 31 11:11:02 2016'
p96
sS'worker_id'
p97
S'0'
p98
sS'output_path'
p99
VE:\u005cFeatureExtraction_Sumagui\u005cOutputs_Mindoro_Blk28E/pt000060.tif
p100
sS'end_time'
p101
S'Thu Mar 31 11:14:04 2016'
p102
sS'path'
p103
VE:\u005cFeatureExtraction_Sumagui\u005cLAZ_Mindoro_Blk28E/pt000060.laz
p104
ssS'2718'
p105
(dp106
S'itemId'
p107
I2718
sS'start_time'
p108
S'Fri Apr 01 10:45:08 2016'
p109
sS'worker_id'
p110
S'0'
p111
sS'output_path'
p112
VE:/FeatureExtractionOutputs/pt000061.tif
p113
sS'end_time'
p114
S'Fri Apr 01 10:45:17 2016'
p115
sS'path'
p116
VE:/testinput/pt000061.laz
p117
sS'error_msg'
p118
S''
p119
ssS'2719'
p120
(dp121
S'itemId'
p122
I2719
sS'start_time'
p123
S'Fri Apr 01 10:45:23 2016'
p124
sS'worker_id'
p125
S'0'
p126
sS'output_path'
p127
VE:/FeatureExtractionOutputs/pt000062.tif
p128
sS'end_time'
p129
S'Fri Apr 01 10:46:31 2016'
p130
sS'path'
p131
VE:/testinput/pt000062.laz
p132
sS'error_msg'
p133
g119
ssS'2650'
p134
(dp135
S'itemId'
p136
I2650
sS'start_time'
p137
S'Thu Mar 31 11:11:20 2016'
p138
sS'worker_id'
p139
S'3'
p140
sS'output_path'
p141
VE:\u005cFeatureExtraction_Sumagui\u005cOutputs_Mindoro_Blk28E/pt000054.tif
p142
sS'end_time'
p143
S'Thu Mar 31 11:12:51 2016'
p144
sS'path'
p145
VE:\u005cFeatureExtraction_Sumagui\u005cLAZ_Mindoro_Blk28E/pt000054.laz
p146
ssS'2709'
p147
(dp148
S'itemId'
p149
I2709
sS'start_time'
p150
S'Thu Mar 31 11:50:42 2016'
p151
sS'worker_id'
p152
S'0'
p153
sS'output_path'
p154
VE:\u005cFeatureExtraction_Sumagui\u005cOutputs_Mindoro_Blk28E/pt000175.tif
p155
sS'end_time'
p156
S'Thu Mar 31 11:53:40 2016'
p157
sS'path'
p158
VE:\u005cFeatureExtraction_Sumagui\u005cLAZ_Mindoro_Blk28E/pt000175.laz
p159
ssS'2708'
p160
(dp161
S'itemId'
p162
I2708
sS'start_time'
p163
S'Thu Mar 31 11:48:39 2016'
p164
sS'worker_id'
p165
S'1'
p166
sS'output_path'
p167
VE:\u005cFeatureExtraction_Sumagui\u005cOutputs_Mindoro_Blk28E/pt000174.tif
p168
sS'end_time'
p169
S'Thu Mar 31 11:55:45 2016'
p170
sS'path'
p171
VE:\u005cFeatureExtraction_Sumagui\u005cLAZ_Mindoro_Blk28E/pt000174.laz
p172
ssS'2705'
p173
(dp174
S'itemId'
p175
I2705
sS'start_time'
p176
S'Thu Mar 31 11:47:12 2016'
p177
sS'worker_id'
p178
S'0'
p179
sS'output_path'
p180
VE:\u005cFeatureExtraction_Sumagui\u005cOutputs_Mindoro_Blk28E/pt000171.tif
p181
sS'end_time'
p182
S'Thu Mar 31 11:50:37 2016'
p183
sS'path'
p184
VE:\u005cFeatureExtraction_Sumagui\u005cLAZ_Mindoro_Blk28E/pt000171.laz
p185
ssS'2704'
p186
(dp187
S'itemId'
p188
I2704
sS'start_time'
p189
S'Thu Mar 31 11:45:08 2016'
p190
sS'worker_id'
p191
S'0'
p192
sS'output_path'
p193
VE:\u005cFeatureExtraction_Sumagui\u005cOutputs_Mindoro_Blk28E/pt000170.tif
p194
sS'end_time'
p195
S'Thu Mar 31 11:47:06 2016'
p196
sS'path'
p197
VE:\u005cFeatureExtraction_Sumagui\u005cLAZ_Mindoro_Blk28E/pt000170.laz
p198
ssS'2707'
p199
(dp200
S'itemId'
p201
I2707
sS'start_time'
p202
S'Thu Mar 31 11:48:30 2016'
p203
sS'worker_id'
p204
S'2'
p205
sS'output_path'
p206
VE:\u005cFeatureExtraction_Sumagui\u005cOutputs_Mindoro_Blk28E/pt000173.tif
p207
sS'end_time'
p208
S'Thu Mar 31 11:50:51 2016'
p209
sS'path'
p210
VE:\u005cFeatureExtraction_Sumagui\u005cLAZ_Mindoro_Blk28E/pt000173.laz
p211
ssS'2706'
p212
(dp213
S'itemId'
p214
I2706
sS'start_time'
p215
S'Thu Mar 31 11:47:45 2016'
p216
sS'worker_id'
p217
S'3'
p218
sS'output_path'
p219
VE:\u005cFeatureExtraction_Sumagui\u005cOutputs_Mindoro_Blk28E/pt000172.tif
p220
sS'end_time'
p221
S'Thu Mar 31 11:50:23 2016'
p222
sS'path'
p223
VE:\u005cFeatureExtraction_Sumagui\u005cLAZ_Mindoro_Blk28E/pt000172.laz
p224
ssS'2701'
p225
(dp226
S'itemId'
p227
I2701
sS'start_time'
p228
S'Thu Mar 31 11:42:50 2016'
p229
sS'worker_id'
p230
S'2'
p231
sS'output_path'
p232
VE:\u005cFeatureExtraction_Sumagui\u005cOutputs_Mindoro_Blk28E/pt000167.tif
p233
sS'end_time'
p234
S'Thu Mar 31 11:43:22 2016'
p235
sS'path'
p236
VE:\u005cFeatureExtraction_Sumagui\u005cLAZ_Mindoro_Blk28E/pt000167.laz
p237
ssS'2700'
p238
(dp239
S'itemId'
p240
I2700
sS'start_time'
p241
S'Thu Mar 31 11:42:39 2016'
p242
sS'worker_id'
p243
S'0'
p244
sS'output_path'
p245
VE:\u005cFeatureExtraction_Sumagui\u005cOutputs_Mindoro_Blk28E/pt000166.tif
p246
sS'end_time'
p247
S'Thu Mar 31 11:45:02 2016'
p248
sS'path'
p249
VE:\u005cFeatureExtraction_Sumagui\u005cLAZ_Mindoro_Blk28E/pt000166.laz
p250
ssS'2703'
p251
(dp252
S'itemId'
p253
I2703
sS'start_time'
p254
S'Thu Mar 31 11:44:18 2016'
p255
sS'worker_id'
p256
S'1'
p257
sS'output_path'
p258
VE:\u005cFeatureExtraction_Sumagui\u005cOutputs_Mindoro_Blk28E/pt000169.tif
p259
sS'end_time'
p260
S'Thu Mar 31 11:47:37 2016'
p261
sS'path'
p262
VE:\u005cFeatureExtraction_Sumagui\u005cLAZ_Mindoro_Blk28E/pt000169.laz
p263
ssS'2702'
p264
(dp265
S'itemId'
p266
I2702
sS'start_time'
p267
S'Thu Mar 31 11:44:29 2016'
p268
sS'worker_id'
p269
S'2'
p270
sS'output_path'
p271
VE:\u005cFeatureExtraction_Sumagui\u005cOutputs_Mindoro_Blk28E/pt000168.tif
p272
sS'end_time'
p273
S'Thu Mar 31 11:46:26 2016'
p274
sS'path'
p275
VE:\u005cFeatureExtraction_Sumagui\u005cLAZ_Mindoro_Blk28E/pt000168.laz
p276
ssS'2648'
p277
(dp278
S'itemId'
p279
I2648
sS'start_time'
p280
S'Thu Mar 31 10:42:05 2016'
p281
sS'worker_id'
p282
S'2'
p283
sS'output_path'
p284
VE:\u005cFeatureExtraction_Sumagui\u005cOutputs_Mindoro_Blk28Es/pt000031.tif
p285
sS'end_time'
p286
S'Thu Mar 31 10:44:13 2016'
p287
sS'path'
p288
VE:\u005cFeatureExtraction_Sumagui\u005cLAZ_Mindoro_Blk28Es/pt000031.laz
p289
ssS'2726'
p290
(dp291
S'itemId'
p292
I2726
sS'start_time'
p293
S'Fri Apr 01 10:49:04 2016'
p294
sS'worker_id'
p295
S'0'
p296
sS'output_path'
p297
VE:/FeatureExtractionOutputs/pt000069.tif
p298
sS'end_time'
p299
S'Fri Apr 01 10:50:15 2016'
p300
sS'path'
p301
VE:/testinput/pt000069.laz
p302
sS'error_msg'
p303
g119
ssS'2751'
p304
(dp305
S'itemId'
p306
I2751
sS'start_time'
p307
S'Fri Apr 01 14:28:27 2016'
p308
sS'worker_id'
p309
S'0'
p310
sS'output_path'
p311
VE:/FeatureExtractionOutputs/pt000061.tif
p312
sS'end_time'
p313
S'Fri Apr 01 14:28:33 2016'
p314
sS'path'
p315
VE:/testinput/pt000061.laz
p316
sS'error_msg'
p317
g119
ssS'2768'
p318
(dp319
S'itemId'
p320
I2768
sS'start_time'
p321
S'Fri Apr 01 15:27:15 2016'
p322
sS'worker_id'
p323
S'0'
p324
sS'output_path'
p325
VE:/FeatureExtractionOutputs/pt000127.tif
p326
sS'end_time'
p327
S'Fri Apr 01 15:28:23 2016'
p328
sS'path'
p329
VE:/testinput/pt000127.laz
p330
sS'error_msg'
p331
g119
ssS'2750'
p332
(dp333
S'itemId'
p334
I2750
sS'start_time'
p335
S'Fri Apr 01 14:13:56 2016'
p336
sS'worker_id'
p337
S'0'
p338
sS'output_path'
p339
VE:/FeatureExtractionOutputs/pt000069.tif
p340
sS'end_time'
p341
S'Fri Apr 01 14:15:05 2016'
p342
sS'path'
p343
VE:/testinput/pt000069.laz
p344
sS'error_msg'
p345
g119
ssS'2761'
p346
(dp347
S'itemId'
p348
I2761
sS'start_time'
p349
S'Fri Apr 01 15:24:04 2016'
p350
sS'worker_id'
p351
S'0'
p352
sS'output_path'
p353
VE:/FeatureExtractionOutputs/pt000021.tif
p354
sS'end_time'
p355
S'Fri Apr 01 15:24:10 2016'
p356
sS'path'
p357
VE:/testinput/pt000021.laz
p358
sS'error_msg'
p359
g119
ssS'2760'
p360
(dp361
S'itemId'
p362
I2760
sS'start_time'
p363
S'Fri Apr 01 15:22:49 2016'
p364
sS'worker_id'
p365
S'0'
p366
sS'output_path'
p367
VE:/FeatureExtractionOutputs/pt000011.tif
p368
sS'end_time'
p369
S'Fri Apr 01 15:23:58 2016'
p370
sS'path'
p371
VE:/testinput/pt000011.laz
p372
sS'error_msg'
p373
g119
ssS'2767'
p374
(dp375
S'itemId'
p376
I2767
sS'start_time'
p377
S'Fri Apr 01 15:26:02 2016'
p378
sS'worker_id'
p379
S'0'
p380
sS'output_path'
p381
VE:/FeatureExtractionOutputs/pt000122.tif
p382
sS'end_time'
p383
S'Fri Apr 01 15:27:10 2016'
p384
sS'path'
p385
VE:/testinput/pt000122.laz
p386
sS'error_msg'
p387
g119
ssS'2766'
p388
(dp389
S'itemId'
p390
I2766
sS'start_time'
p391
S'Fri Apr 01 15:24:48 2016'
p392
sS'worker_id'
p393
S'0'
p394
sS'output_path'
p395
VE:/FeatureExtractionOutputs/pt000069.tif
p396
sS'end_time'
p397
S'Fri Apr 01 15:25:56 2016'
p398
sS'path'
p399
VE:/testinput/pt000069.laz
p400
sS'error_msg'
p401
g119
ssS'2609'
p402
(dp403
S'itemId'
p404
I2609
sS'start_time'
p405
S'Thu Mar 10 11:19:01 2016'
p406
sS'worker_id'
p407
S'0'
p408
sS'output_path'
p409
VE:/FeatureExtractionOutputs/pt000002.tif
p410
sS'end_time'
p411
S'Thu Mar 10 11:19:11 2016'
p412
sS'path'
p413
VE:/FeatureExtractionV4/pipelinev6/inputs/ground/pt000002.laz
p414
ssS'2646'
p415
(dp416
S'itemId'
p417
I2646
sS'start_time'
p418
S'Thu Mar 31 09:20:57 2016'
p419
sS'worker_id'
p420
S'0'
p421
sS'output_path'
p422
VE:\u005cFeatureExtraction_Sumagui\u005cOutputs_Mindoro_Blk28Es/pt000062.tif
p423
sS'end_time'
p424
S'Thu Mar 31 09:22:04 2016'
p425
sS'path'
p426
VE:\u005cFeatureExtraction_Sumagui\u005cLAZ_Mindoro_Blk28Es/pt000062.laz
p427
ssS'2764'
p428
(dp429
S'itemId'
p430
I2764
sS'start_time'
p431
S'Fri Apr 01 15:24:29 2016'
p432
sS'worker_id'
p433
S'0'
p434
sS'output_path'
p435
VE:/FeatureExtractionOutputs/pt000061.tif
p436
sS'end_time'
p437
S'Fri Apr 01 15:24:35 2016'
p438
sS'path'
p439
VE:/testinput/pt000061.laz
p440
sS'error_msg'
p441
g119
ssS'2759'
p442
(dp443
S'itemId'
p444
I2759
sS'start_time'
p445
S'Fri Apr 01 14:59:41 2016'
p446
sS'worker_id'
p447
S'0'
p448
sS'output_path'
p449
VE:/FeatureExtractionOutputs/pt000069.tif
p450
sS'end_time'
p451
S'Fri Apr 01 15:00:54 2016'
p452
sS'path'
p453
VE:/testinput/pt000069.laz
p454
sS'error_msg'
p455
g119
ssS'2617'
p456
(dp457
S'itemId'
p458
I2617
sS'start_time'
p459
S'Thu Mar 10 11:21:09 2016'
p460
sS'worker_id'
p461
S'0'
p462
sS'output_path'
p463
VE:/FeatureExtractionOutputs/pt000127.tif
p464
sS'end_time'
p465
S'Thu Mar 10 11:21:19 2016'
p466
sS'path'
p467
VE:/FeatureExtractionV4/pipelinev6/inputs/ground/pt000127.laz
p468
ssS'2616'
p469
(dp470
S'itemId'
p471
I2616
sS'start_time'
p472
S'Thu Mar 10 11:20:53 2016'
p473
sS'worker_id'
p474
S'0'
p475
sS'output_path'
p476
VE:/FeatureExtractionOutputs/pt000121.tif
p477
sS'end_time'
p478
S'Thu Mar 10 11:21:03 2016'
p479
sS'path'
p480
VE:/FeatureExtractionV4/pipelinev6/inputs/ground/pt000121.laz
p481
ssS'2615'
p482
(dp483
S'itemId'
p484
I2615
sS'start_time'
p485
S'Thu Mar 10 11:20:37 2016'
p486
sS'worker_id'
p487
S'0'
p488
sS'output_path'
p489
VE:/FeatureExtractionOutputs/pt000120.tif
p490
sS'end_time'
p491
S'Thu Mar 10 11:20:47 2016'
p492
sS'path'
p493
VE:/FeatureExtractionV4/pipelinev6/inputs/ground/pt000120.laz
p494
ssS'2614'
p495
(dp496
S'itemId'
p497
I2614
sS'start_time'
p498
S'Thu Mar 10 11:20:20 2016'
p499
sS'worker_id'
p500
S'0'
p501
sS'output_path'
p502
VE:/FeatureExtractionOutputs/pt000115.tif
p503
sS'end_time'
p504
S'Thu Mar 10 11:20:31 2016'
p505
sS'path'
p506
VE:/FeatureExtractionV4/pipelinev6/inputs/ground/pt000115.laz
p507
ssS'2613'
p508
(dp509
S'itemId'
p510
I2613
sS'start_time'
p511
S'Thu Mar 10 11:20:04 2016'
p512
sS'worker_id'
p513
S'0'
p514
sS'output_path'
p515
VE:/FeatureExtractionOutputs/pt000113.tif
p516
sS'end_time'
p517
S'Thu Mar 10 11:20:15 2016'
p518
sS'path'
p519
VE:/FeatureExtractionV4/pipelinev6/inputs/ground/pt000113.laz
p520
ssS'2612'
p521
(dp522
S'itemId'
p523
I2612
sS'start_time'
p524
S'Thu Mar 10 11:19:48 2016'
p525
sS'worker_id'
p526
S'0'
p527
sS'output_path'
p528
VE:/FeatureExtractionOutputs/pt000024.tif
p529
sS'end_time'
p530
S'Thu Mar 10 11:19:58 2016'
p531
sS'path'
p532
VE:/FeatureExtractionV4/pipelinev6/inputs/ground/pt000024.laz
p533
ssS'2611'
p534
(dp535
S'itemId'
p536
I2611
sS'start_time'
p537
S'Thu Mar 10 11:19:33 2016'
p538
sS'worker_id'
p539
S'0'
p540
sS'output_path'
p541
VE:/FeatureExtractionOutputs/pt000015.tif
p542
sS'end_time'
p543
S'Thu Mar 10 11:19:43 2016'
p544
sS'path'
p545
VE:/FeatureExtractionV4/pipelinev6/inputs/ground/pt000015.laz
p546
ssS'2610'
p547
(dp548
S'itemId'
p549
I2610
sS'start_time'
p550
S'Thu Mar 10 11:19:17 2016'
p551
sS'worker_id'
p552
S'0'
p553
sS'output_path'
p554
VE:/FeatureExtractionOutputs/pt000012.tif
p555
sS'end_time'
p556
S'Thu Mar 10 11:19:27 2016'
p557
sS'path'
p558
VE:/FeatureExtractionV4/pipelinev6/inputs/ground/pt000012.laz
p559
ssS'2619'
p560
(dp561
S'itemId'
p562
I2619
sS'start_time'
p563
S'Thu Mar 10 14:23:35 2016'
p564
sS'worker_id'
p565
S'0'
p566
sS'output_path'
p567
VE:/FeatureExtractionOutputs/pt000015.tif
p568
sS'end_time'
p569
S'Thu Mar 10 14:45:18 2016'
p570
sS'path'
p571
VE:/testinput/pt000015.laz
p572
ssS'2618'
p573
(dp574
S'itemId'
p575
I2618
sS'start_time'
p576
S'Thu Mar 10 11:21:25 2016'
p577
sS'worker_id'
p578
S'0'
p579
sS'output_path'
p580
VE:/FeatureExtractionOutputs/pt000128.tif
p581
sS'end_time'
p582
S'Thu Mar 10 11:21:35 2016'
p583
sS'path'
p584
VE:/FeatureExtractionV4/pipelinev6/inputs/ground/pt000128.laz
p585
ssS'2639'
p586
(dp587
S'itemId'
p588
I2639
sS'start_time'
p589
S'Thu Mar 31 09:14:17 2016'
p590
sS'worker_id'
p591
S'0'
p592
sS'output_path'
p593
VE:\u005cFeatureExtraction_Sumagui\u005cOutputs_Mindoro_Blk28Es/pt000037.tif
p594
sS'end_time'
p595
S'Thu Mar 31 09:18:27 2016'
p596
sS'path'
p597
VE:\u005cFeatureExtraction_Sumagui\u005cLAZ_Mindoro_Blk28Es/pt000037.laz
p598
ssS'2688'
p599
(dp600
S'itemId'
p601
I2688
sS'start_time'
p602
S'Thu Mar 31 11:29:30 2016'
p603
sS'worker_id'
p604
S'2'
p605
sS'output_path'
p606
VE:\u005cFeatureExtraction_Sumagui\u005cOutputs_Mindoro_Blk28E/pt000089.tif
p607
sS'end_time'
p608
S'Thu Mar 31 11:31:28 2016'
p609
sS'path'
p610
VE:\u005cFeatureExtraction_Sumagui\u005cLAZ_Mindoro_Blk28E/pt000089.laz
p611
ssS'2689'
p612
(dp613
S'itemId'
p614
I2689
sS'start_time'
p615
S'Thu Mar 31 11:29:46 2016'
p616
sS'worker_id'
p617
S'1'
p618
sS'output_path'
p619
VE:\u005cFeatureExtraction_Sumagui\u005cOutputs_Mindoro_Blk28E/pt000090.tif
p620
sS'end_time'
p621
S'Thu Mar 31 11:33:54 2016'
p622
sS'path'
p623
VE:\u005cFeatureExtraction_Sumagui\u005cLAZ_Mindoro_Blk28E/pt000090.laz
p624
ssS'2684'
p625
(dp626
S'itemId'
p627
I2684
sS'start_time'
p628
S'Thu Mar 31 11:25:04 2016'
p629
sS'worker_id'
p630
S'1'
p631
sS'output_path'
p632
VE:\u005cFeatureExtraction_Sumagui\u005cOutputs_Mindoro_Blk28E/pt000054.tif
p633
sS'end_time'
p634
S'Thu Mar 31 11:29:17 2016'
p635
sS'path'
p636
VE:\u005cFeatureExtraction_Sumagui\u005cLAZ_Mindoro_Blk28E/pt000054.laz
p637
ssS'2685'
p638
(dp639
S'itemId'
p640
I2685
sS'start_time'
p641
S'Thu Mar 31 11:24:54 2016'
p642
sS'worker_id'
p643
S'3'
p644
sS'output_path'
p645
VE:\u005cFeatureExtraction_Sumagui\u005cOutputs_Mindoro_Blk28E/pt000059.tif
p646
sS'end_time'
p647
S'Thu Mar 31 11:28:13 2016'
p648
sS'path'
p649
VE:\u005cFeatureExtraction_Sumagui\u005cLAZ_Mindoro_Blk28E/pt000059.laz
p650
ssS'2686'
p651
(dp652
S'itemId'
p653
I2686
sS'start_time'
p654
S'Thu Mar 31 11:25:19 2016'
p655
sS'worker_id'
p656
S'2'
p657
sS'output_path'
p658
VE:\u005cFeatureExtraction_Sumagui\u005cOutputs_Mindoro_Blk28E/pt000060.tif
p659
sS'end_time'
p660
S'Thu Mar 31 11:27:59 2016'
p661
sS'path'
p662
VE:\u005cFeatureExtraction_Sumagui\u005cLAZ_Mindoro_Blk28E/pt000060.laz
p663
ssS'2687'
p664
(dp665
S'itemId'
p666
I2687
sS'start_time'
p667
S'Thu Mar 31 11:27:28 2016'
p668
sS'worker_id'
p669
S'0'
p670
sS'output_path'
p671
VE:\u005cFeatureExtraction_Sumagui\u005cOutputs_Mindoro_Blk28E/pt000078.tif
p672
sS'end_time'
p673
S'Thu Mar 31 11:30:32 2016'
p674
sS'path'
p675
VE:\u005cFeatureExtraction_Sumagui\u005cLAZ_Mindoro_Blk28E/pt000078.laz
p676
ssS'2683'
p677
(dp678
S'itemId'
p679
I2683
sS'start_time'
p680
S'Thu Mar 31 11:24:32 2016'
p681
sS'worker_id'
p682
S'0'
p683
sS'output_path'
p684
VE:\u005cFeatureExtraction_Sumagui\u005cOutputs_Mindoro_Blk28E/pt000053.tif
p685
sS'end_time'
p686
S'Thu Mar 31 11:27:23 2016'
p687
sS'path'
p688
VE:\u005cFeatureExtraction_Sumagui\u005cLAZ_Mindoro_Blk28E/pt000053.laz
p689
ssS'2623'
p690
(dp691
S'itemId'
p692
I2623
sS'start_time'
p693
S'Thu Mar 10 16:28:26 2016'
p694
sS'worker_id'
p695
S'1'
p696
sS'output_path'
p697
VE:/FeatureExtractionOutputs/pt000015.tif
p698
sS'end_time'
p699
S'Thu Mar 10 16:50:37 2016'
p700
sS'path'
p701
VE:/testinput/pt000015.laz
p702
ssS'2621'
p703
(dp704
S'itemId'
p705
I2621
sS'start_time'
p706
S'Thu Mar 10 15:08:08 2016'
p707
sS'worker_id'
p708
S'0'
p709
sS'output_path'
p710
VE:/FeatureExtractionOutputs/pt000015.tif
p711
sS'end_time'
p712
S'Thu Mar 10 15:12:39 2016'
p713
sS'path'
p714
VE:/testinput/pt000015.laz
p715
ssS'2626'
p716
(dp717
S'itemId'
p718
I2626
sS'start_time'
p719
S'Tue Mar 22 15:11:33 2016'
p720
sS'worker_id'
p721
S'1'
p722
sS'output_path'
p723
VE:/FeatureExtractionOutputs/pt000012.tif
p724
sS'end_time'
p725
S'Tue Mar 22 16:11:39 2016'
p726
sS'path'
p727
VE:/testinput/pt000012.laz
p728
ssS'2627'
p729
(dp730
S'itemId'
p731
I2627
sS'start_time'
p732
S'Tue Mar 22 15:27:29 2016'
p733
sS'worker_id'
p734
S'0'
p735
sS'output_path'
p736
VE:/FeatureExtractionOutputs/pt000015.tif
p737
sS'end_time'
p738
S'Tue Mar 22 15:31:53 2016'
p739
sS'path'
p740
VE:/testinput/pt000015.laz
p741
ssS'2624'
p742
(dp743
S'itemId'
p744
I2624
sS'start_time'
p745
S'Thu Mar 10 16:55:04 2016'
p746
sS'worker_id'
p747
S'0'
p748
sS'output_path'
p749
VE:/FeatureExtractionOutputs/pt000015.tif
p750
sS'end_time'
p751
S'Thu Mar 10 16:59:46 2016'
p752
sS'path'
p753
VE:/testinput/pt000015.laz
p754
ssS'2625'
p755
(dp756
S'itemId'
p757
I2625
sS'start_time'
p758
S'Tue Mar 22 15:11:22 2016'
p759
sS'worker_id'
p760
S'0'
p761
sS'output_path'
p762
VE:/FeatureExtractionOutputs/pt000002.tif
p763
sS'end_time'
p764
S'Tue Mar 22 15:27:23 2016'
p765
sS'path'
p766
VE:/testinput/pt000002.laz
p767
ssS'2631'
p768
(dp769
S'itemId'
p770
I2631
sS'start_time'
p771
S'Thu Mar 31 09:08:52 2016'
p772
sS'worker_id'
p773
S'2'
p774
sS'output_path'
p775
VE:\u005cFeatureExtraction_Sumagui\u005cOutputs_Mindoro_Blk28Es/pt000029.tif
p776
sS'end_time'
p777
S'Thu Mar 31 09:11:55 2016'
p778
sS'path'
p779
VE:\u005cFeatureExtraction_Sumagui\u005cLAZ_Mindoro_Blk28Es/pt000029.laz
p780
ssS'2628'
p781
(dp782
S'itemId'
p783
I2628
sS'start_time'
p784
S'Tue Mar 22 15:31:59 2016'
p785
sS'worker_id'
p786
S'0'
p787
sS'output_path'
p788
VE:/FeatureExtractionOutputs/pt000024.tif
p789
sS'end_time'
p790
S'Tue Mar 22 15:55:34 2016'
p791
sS'path'
p792
VE:/testinput/pt000024.laz
p793
ssS'2629'
p794
(dp795
S'itemId'
p796
I2629
sS'start_time'
p797
S'Thu Mar 31 09:08:51 2016'
p798
sS'worker_id'
p799
S'1'
p800
sS'output_path'
p801
VE:\u005cFeatureExtraction_Sumagui\u005cOutputs_Mindoro_Blk28Es/pt000027.tif
p802
sS'end_time'
p803
S'Thu Mar 31 09:09:06 2016'
p804
sS'path'
p805
VE:\u005cFeatureExtraction_Sumagui\u005cLAZ_Mindoro_Blk28Es/pt000027.laz
p806
ssS'2739'
p807
(dp808
S'itemId'
p809
I2739
sS'start_time'
p810
S'Fri Apr 01 13:55:32 2016'
p811
sS'worker_id'
p812
S'0'
p813
sS'output_path'
p814
VE:/FeatureExtractionOutputs/pt000061.tif
p815
sS'end_time'
p816
S'Fri Apr 01 13:55:48 2016'
p817
sS'path'
p818
VE:/testinput/pt000061.laz
p819
sS'error_msg'
p820
g119
ssS'2756'
p821
(dp822
S'itemId'
p823
I2756
sS'start_time'
p824
S'Fri Apr 01 14:38:45 2016'
p825
sS'worker_id'
p826
S'0'
p827
sS'output_path'
p828
VE:/FeatureExtractionOutputs/pt000069.tif
p829
sS'end_time'
p830
S'Fri Apr 01 14:39:55 2016'
p831
sS'path'
p832
VE:/testinput/pt000069.laz
p833
sS'error_msg'
p834
g119
ssS'2757'
p835
(dp836
S'itemId'
p837
I2757
sS'start_time'
p838
S'Fri Apr 01 14:59:13 2016'
p839
sS'worker_id'
p840
S'0'
p841
sS'output_path'
p842
VE:/FeatureExtractionOutputs/pt000061.tif
p843
sS'end_time'
p844
S'Fri Apr 01 14:59:28 2016'
p845
sS'path'
p846
VE:/testinput/pt000061.laz
p847
sS'error_msg'
p848
g119
ssS'2754'
p849
(dp850
S'itemId'
p851
I2754
sS'start_time'
p852
S'Fri Apr 01 14:38:26 2016'
p853
sS'worker_id'
p854
S'0'
p855
sS'output_path'
p856
VE:/FeatureExtractionOutputs/pt000061.tif
p857
sS'end_time'
p858
S'Fri Apr 01 14:38:32 2016'
p859
sS'path'
p860
VE:/testinput/pt000061.laz
p861
sS'error_msg'
p862
g119
ssS'2753'
p863
(dp864
S'itemId'
p865
I2753
sS'start_time'
p866
S'Fri Apr 01 14:28:46 2016'
p867
sS'worker_id'
p868
S'0'
p869
sS'output_path'
p870
VE:/FeatureExtractionOutputs/pt000069.tif
p871
sS'end_time'
p872
S'Fri Apr 01 14:29:58 2016'
p873
sS'path'
p874
VE:/testinput/pt000069.laz
p875
sS'error_msg'
p876
g119
ssS'2699'
p877
(dp878
S'itemId'
p879
I2699
sS'start_time'
p880
S'Thu Mar 31 11:41:16 2016'
p881
sS'worker_id'
p882
S'3'
p883
sS'output_path'
p884
VE:\u005cFeatureExtraction_Sumagui\u005cOutputs_Mindoro_Blk28E/pt000165.tif
p885
sS'end_time'
p886
S'Thu Mar 31 11:43:09 2016'
p887
sS'path'
p888
VE:\u005cFeatureExtraction_Sumagui\u005cLAZ_Mindoro_Blk28E/pt000165.laz
p889
ssS'2698'
p890
(dp891
S'itemId'
p892
I2698
sS'start_time'
p893
S'Thu Mar 31 11:40:14 2016'
p894
sS'worker_id'
p895
S'0'
p896
sS'output_path'
p897
VE:\u005cFeatureExtraction_Sumagui\u005cOutputs_Mindoro_Blk28E/pt000164.tif
p898
sS'end_time'
p899
S'Thu Mar 31 11:42:33 2016'
p900
sS'path'
p901
VE:\u005cFeatureExtraction_Sumagui\u005cLAZ_Mindoro_Blk28E/pt000164.laz
p902
ssS'2697'
p903
(dp904
S'itemId'
p905
I2697
sS'start_time'
p906
S'Thu Mar 31 11:39:52 2016'
p907
sS'worker_id'
p908
S'2'
p909
sS'output_path'
p910
VE:\u005cFeatureExtraction_Sumagui\u005cOutputs_Mindoro_Blk28E/pt000163.tif
p911
sS'end_time'
p912
S'Thu Mar 31 11:41:32 2016'
p913
sS'path'
p914
VE:\u005cFeatureExtraction_Sumagui\u005cLAZ_Mindoro_Blk28E/pt000163.laz
p915
ssS'2696'
p916
(dp917
S'itemId'
p918
I2696
sS'start_time'
p919
S'Thu Mar 31 11:38:39 2016'
p920
sS'worker_id'
p921
S'0'
p922
sS'output_path'
p923
VE:\u005cFeatureExtraction_Sumagui\u005cOutputs_Mindoro_Blk28E/pt000142.tif
p924
sS'end_time'
p925
S'Thu Mar 31 11:40:08 2016'
p926
sS'path'
p927
VE:\u005cFeatureExtraction_Sumagui\u005cLAZ_Mindoro_Blk28E/pt000142.laz
p928
ssS'2695'
p929
(dp930
S'itemId'
p931
I2695
sS'start_time'
p932
S'Thu Mar 31 11:36:47 2016'
p933
sS'worker_id'
p934
S'2'
p935
sS'output_path'
p936
VE:\u005cFeatureExtraction_Sumagui\u005cOutputs_Mindoro_Blk28E/pt000141.tif
p937
sS'end_time'
p938
S'Thu Mar 31 11:37:56 2016'
p939
sS'path'
p940
VE:\u005cFeatureExtraction_Sumagui\u005cLAZ_Mindoro_Blk28E/pt000141.laz
p941
ssS'2694'
p942
(dp943
S'itemId'
p944
I2694
sS'start_time'
p945
S'Thu Mar 31 11:36:40 2016'
p946
sS'worker_id'
p947
S'3'
p948
sS'output_path'
p949
VE:\u005cFeatureExtraction_Sumagui\u005cOutputs_Mindoro_Blk28E/pt000125.tif
p950
sS'end_time'
p951
S'Thu Mar 31 11:38:03 2016'
p952
sS'path'
p953
VE:\u005cFeatureExtraction_Sumagui\u005cLAZ_Mindoro_Blk28E/pt000125.laz
p954
ssS'2693'
p955
(dp956
S'itemId'
p957
I2693
sS'start_time'
p958
S'Thu Mar 31 11:34:22 2016'
p959
sS'worker_id'
p960
S'1'
p961
sS'output_path'
p962
VE:\u005cFeatureExtraction_Sumagui\u005cOutputs_Mindoro_Blk28E/pt000124.tif
p963
sS'end_time'
p964
S'Thu Mar 31 11:43:05 2016'
p965
sS'path'
p966
VE:\u005cFeatureExtraction_Sumagui\u005cLAZ_Mindoro_Blk28E/pt000124.laz
p967
ssS'2692'
p968
(dp969
S'itemId'
p970
I2692
sS'start_time'
p971
S'Thu Mar 31 11:33:02 2016'
p972
sS'worker_id'
p973
S'3'
p974
sS'output_path'
p975
VE:\u005cFeatureExtraction_Sumagui\u005cOutputs_Mindoro_Blk28E/pt000119.tif
p976
sS'end_time'
p977
S'Thu Mar 31 11:34:56 2016'
p978
sS'path'
p979
VE:\u005cFeatureExtraction_Sumagui\u005cLAZ_Mindoro_Blk28E/pt000119.laz
p980
ssS'2691'
p981
(dp982
S'itemId'
p983
I2691
sS'start_time'
p984
S'Thu Mar 31 11:32:56 2016'
p985
sS'worker_id'
p986
S'2'
p987
sS'output_path'
p988
VE:\u005cFeatureExtraction_Sumagui\u005cOutputs_Mindoro_Blk28E/pt000103.tif
p989
sS'end_time'
p990
S'Thu Mar 31 11:35:32 2016'
p991
sS'path'
p992
VE:\u005cFeatureExtraction_Sumagui\u005cLAZ_Mindoro_Blk28E/pt000103.laz
p993
ssS'2690'
p994
(dp995
S'itemId'
p996
I2690
sS'start_time'
p997
S'Thu Mar 31 11:30:38 2016'
p998
sS'worker_id'
p999
S'0'
p1000
sS'output_path'
p1001
VE:\u005cFeatureExtraction_Sumagui\u005cOutputs_Mindoro_Blk28E/pt000092.tif
p1002
sS'end_time'
p1003
S'Thu Mar 31 11:38:33 2016'
p1004
sS'path'
p1005
VE:\u005cFeatureExtraction_Sumagui\u005cLAZ_Mindoro_Blk28E/pt000092.laz
p1006
ssS'2735'
p1007
(dp1008
S'itemId'
p1009
I2735
sS'start_time'
p1010
S'Fri Apr 01 11:39:35 2016'
p1011
sS'worker_id'
p1012
S'0'
p1013
sS'output_path'
p1014
VE:/FeatureExtractionOutputs/pt000069.tif
p1015
sS'end_time'
p1016
S'Fri Apr 01 11:40:41 2016'
p1017
sS'path'
p1018
VE:/testinput/pt000069.laz
p1019
sS'error_msg'
p1020
g119
ssS'2736'
p1021
(dp1022
S'itemId'
p1023
I2736
sS'start_time'
p1024
S'Fri Apr 01 11:44:38 2016'
p1025
sS'worker_id'
p1026
S'0'
p1027
sS'output_path'
p1028
VE:/FeatureExtractionOutputs/pt000061.tif
p1029
sS'end_time'
p1030
S'Fri Apr 01 11:44:44 2016'
p1031
sS'path'
p1032
VE:/testinput/pt000061.laz
p1033
sS'error_msg'
p1034
g119
ssS'2730'
p1035
(dp1036
S'itemId'
p1037
I2730
sS'start_time'
p1038
S'Fri Apr 01 11:36:22 2016'
p1039
sS'worker_id'
p1040
S'0'
p1041
sS'output_path'
p1042
VE:/FeatureExtractionOutputs/pt000061.tif
p1043
sS'end_time'
p1044
S'Fri Apr 01 11:36:30 2016'
p1045
sS'path'
p1046
VE:/testinput/pt000061.laz
p1047
sS'error_msg'
p1048
g119
ssS'2638'
p1049
(dp1050
S'itemId'
p1051
I2638
sS'start_time'
p1052
S'Thu Mar 31 09:13:59 2016'
p1053
sS'worker_id'
p1054
S'0'
p1055
sS'output_path'
p1056
VE:\u005cFeatureExtraction_Sumagui\u005cOutputs_Mindoro_Blk28Es/pt000036.tif
p1057
sS'end_time'
p1058
S'Thu Mar 31 09:14:11 2016'
p1059
sS'path'
p1060
VE:\u005cFeatureExtraction_Sumagui\u005cLAZ_Mindoro_Blk28Es/pt000036.laz
p1061
ssS'2732'
p1062
(dp1063
S'itemId'
p1064
I2732
sS'start_time'
p1065
S'Fri Apr 01 11:36:42 2016'
p1066
sS'worker_id'
p1067
S'0'
p1068
sS'output_path'
p1069
VE:/FeatureExtractionOutputs/pt000069.tif
p1070
sS'end_time'
p1071
S'Fri Apr 01 11:37:48 2016'
p1072
sS'path'
p1073
VE:/testinput/pt000069.laz
p1074
sS'error_msg'
p1075
g119
ssS'2733'
p1076
(dp1077
S'itemId'
p1078
I2733
sS'start_time'
p1079
S'Fri Apr 01 11:39:17 2016'
p1080
sS'worker_id'
p1081
S'0'
p1082
sS'output_path'
p1083
VE:/FeatureExtractionOutputs/pt000061.tif
p1084
sS'end_time'
p1085
S'Fri Apr 01 11:39:23 2016'
p1086
sS'path'
p1087
VE:/testinput/pt000061.laz
p1088
sS'error_msg'
p1089
g119
ssS'2635'
p1090
(dp1091
S'itemId'
p1092
I2635
sS'start_time'
p1093
S'Thu Mar 31 09:11:45 2016'
p1094
sS'worker_id'
p1095
S'0'
p1096
sS'output_path'
p1097
VE:\u005cFeatureExtraction_Sumagui\u005cOutputs_Mindoro_Blk28Es/pt000033.tif
p1098
sS'end_time'
p1099
S'Thu Mar 31 09:13:53 2016'
p1100
sS'path'
p1101
VE:\u005cFeatureExtraction_Sumagui\u005cLAZ_Mindoro_Blk28Es/pt000033.laz
p1102
ssS'2634'
p1103
(dp1104
S'itemId'
p1105
I2634
sS'start_time'
p1106
S'Thu Mar 31 09:10:38 2016'
p1107
sS'worker_id'
p1108
S'0'
p1109
sS'output_path'
p1110
VE:\u005cFeatureExtraction_Sumagui\u005cOutputs_Mindoro_Blk28Es/pt000032.tif
p1111
sS'end_time'
p1112
S'Thu Mar 31 09:11:39 2016'
p1113
sS'path'
p1114
VE:\u005cFeatureExtraction_Sumagui\u005cLAZ_Mindoro_Blk28Es/pt000032.laz
p1115
ssS'2637'
p1116
(dp1117
S'itemId'
p1118
I2637
sS'start_time'
p1119
S'Thu Mar 31 09:13:42 2016'
p1120
sS'worker_id'
p1121
S'3'
p1122
sS'output_path'
p1123
VE:\u005cFeatureExtraction_Sumagui\u005cOutputs_Mindoro_Blk28Es/pt000035.tif
p1124
sS'end_time'
p1125
S'Thu Mar 31 09:16:21 2016'
p1126
sS'path'
p1127
VE:\u005cFeatureExtraction_Sumagui\u005cLAZ_Mindoro_Blk28Es/pt000035.laz
p1128
ssS'2636'
p1129
(dp1130
S'itemId'
p1131
I2636
sS'start_time'
p1132
S'Thu Mar 31 09:13:28 2016'
p1133
sS'worker_id'
p1134
S'2'
p1135
sS'output_path'
p1136
VE:\u005cFeatureExtraction_Sumagui\u005cOutputs_Mindoro_Blk28Es/pt000034.tif
p1137
sS'end_time'
p1138
S'Thu Mar 31 09:16:00 2016'
p1139
sS'path'
p1140
VE:\u005cFeatureExtraction_Sumagui\u005cLAZ_Mindoro_Blk28Es/pt000034.laz
p1141
ssS'2738'
p1142
(dp1143
S'itemId'
p1144
I2738
sS'start_time'
p1145
S'Fri Apr 01 11:44:56 2016'
p1146
sS'worker_id'
p1147
S'0'
p1148
sS'output_path'
p1149
VE:/FeatureExtractionOutputs/pt000069.tif
p1150
sS'end_time'
p1151
S'Fri Apr 01 11:46:06 2016'
p1152
sS'path'
p1153
VE:/testinput/pt000069.laz
p1154
sS'error_msg'
p1155
g119
ssS'2630'
p1156
(dp1157
S'itemId'
p1158
I2630
sS'start_time'
p1159
S'Thu Mar 31 09:08:49 2016'
p1160
sS'worker_id'
p1161
S'3'
p1162
sS'output_path'
p1163
VE:\u005cFeatureExtraction_Sumagui\u005cOutputs_Mindoro_Blk28Es/pt000028.tif
p1164
sS'end_time'
p1165
S'Thu Mar 31 09:11:44 2016'
p1166
sS'path'
p1167
VE:\u005cFeatureExtraction_Sumagui\u005cLAZ_Mindoro_Blk28Es/pt000028.laz
p1168
ssS'2632'
p1169
(dp1170
S'itemId'
p1171
I2632
sS'start_time'
p1172
S'Thu Mar 31 09:08:43 2016'
p1173
sS'worker_id'
p1174
S'0'
p1175
sS'output_path'
p1176
VE:\u005cFeatureExtraction_Sumagui\u005cOutputs_Mindoro_Blk28Es/pt000030.tif
p1177
sS'end_time'
p1178
S'Thu Mar 31 09:10:32 2016'
p1179
sS'path'
p1180
VE:\u005cFeatureExtraction_Sumagui\u005cLAZ_Mindoro_Blk28Es/pt000030.laz
p1181
ssS'2741'
p1182
(dp1183
S'itemId'
p1184
I2741
sS'start_time'
p1185
S'Fri Apr 01 13:56:02 2016'
p1186
sS'worker_id'
p1187
S'0'
p1188
sS'output_path'
p1189
VE:/FeatureExtractionOutputs/pt000069.tif
p1190
sS'end_time'
p1191
S'Fri Apr 01 13:57:11 2016'
p1192
sS'path'
p1193
VE:/testinput/pt000069.laz
p1194
sS'error_msg'
p1195
g119
ssS'2742'
p1196
(dp1197
S'itemId'
p1198
I2742
sS'start_time'
p1199
S'Fri Apr 01 14:06:14 2016'
p1200
sS'worker_id'
p1201
S'0'
p1202
sS'output_path'
p1203
VE:/FeatureExtractionOutputs/pt000061.tif
p1204
sS'end_time'
p1205
S'Fri Apr 01 14:06:20 2016'
p1206
sS'path'
p1207
VE:/testinput/pt000061.laz
p1208
sS'error_msg'
p1209
g119
ssS'2745'
p1210
(dp1211
S'itemId'
p1212
I2745
sS'start_time'
p1213
S'Fri Apr 01 14:11:16 2016'
p1214
sS'worker_id'
p1215
S'0'
p1216
sS'output_path'
p1217
VE:/FeatureExtractionOutputs/pt000061.tif
p1218
sS'end_time'
p1219
S'Fri Apr 01 14:11:22 2016'
p1220
sS'path'
p1221
VE:/testinput/pt000061.laz
p1222
sS'error_msg'
p1223
g119
ssS'2744'
p1224
(dp1225
S'itemId'
p1226
I2744
sS'start_time'
p1227
S'Fri Apr 01 14:06:32 2016'
p1228
sS'worker_id'
p1229
S'0'
p1230
sS'output_path'
p1231
VE:/FeatureExtractionOutputs/pt000069.tif
p1232
sS'end_time'
p1233
S'Fri Apr 01 14:07:40 2016'
p1234
sS'path'
p1235
VE:/testinput/pt000069.laz
p1236
sS'error_msg'
p1237
g119
ssS'2747'
p1238
(dp1239
S'itemId'
p1240
I2747
sS'start_time'
p1241
S'Fri Apr 01 14:11:35 2016'
p1242
sS'worker_id'
p1243
S'0'
p1244
sS'output_path'
p1245
VE:/FeatureExtractionOutputs/pt000069.tif
p1246
sS'end_time'
p1247
S'Fri Apr 01 14:12:43 2016'
p1248
sS'path'
p1249
VE:/testinput/pt000069.laz
p1250
sS'error_msg'
p1251
g119
ssS'2748'
p1252
(dp1253
S'itemId'
p1254
I2748
sS'start_time'
p1255
S'Fri Apr 01 14:13:37 2016'
p1256
sS'worker_id'
p1257
S'0'
p1258
sS'output_path'
p1259
VE:/FeatureExtractionOutputs/pt000061.tif
p1260
sS'end_time'
p1261
S'Fri Apr 01 14:13:43 2016'
p1262
sS'path'
p1263
VE:/testinput/pt000061.laz
p1264
sS'error_msg'
p1265
g119
ssS'2727'
p1266
(dp1267
S'itemId'
p1268
I2727
sS'start_time'
p1269
S'Fri Apr 01 11:29:44 2016'
p1270
sS'worker_id'
p1271
S'0'
p1272
sS'output_path'
p1273
VE:/FeatureExtractionOutputs/pt000061.tif
p1274
sS'end_time'
p1275
S'Fri Apr 01 11:29:50 2016'
p1276
sS'path'
p1277
VE:/testinput/pt000061.laz
p1278
sS'error_msg'
p1279
g119
ssS'2649'
p1280
(dp1281
S'itemId'
p1282
I2649
sS'start_time'
p1283
S'Thu Mar 31 11:13:47 2016'
p1284
sS'worker_id'
p1285
S'2'
p1286
sS'output_path'
p1287
VE:\u005cFeatureExtraction_Sumagui\u005cOutputs_Mindoro_Blk28E/pt000053.tif
p1288
sS'end_time'
p1289
S'Thu Mar 31 11:16:22 2016'
p1290
sS'path'
p1291
VE:\u005cFeatureExtraction_Sumagui\u005cLAZ_Mindoro_Blk28E/pt000053.laz
p1292
ssS'2724'
p1293
(dp1294
S'itemId'
p1295
I2724
sS'start_time'
p1296
S'Fri Apr 01 10:48:45 2016'
p1297
sS'worker_id'
p1298
S'0'
p1299
sS'output_path'
p1300
VE:/FeatureExtractionOutputs/pt000061.tif
p1301
sS'end_time'
p1302
S'Fri Apr 01 10:48:51 2016'
p1303
sS'path'
p1304
VE:/testinput/pt000061.laz
p1305
sS'error_msg'
p1306
g119
ssS'2640'
p1307
(dp1308
S'itemId'
p1309
I2640
sS'start_time'
p1310
S'Thu Mar 31 09:16:25 2016'
p1311
sS'worker_id'
p1312
S'2'
p1313
sS'output_path'
p1314
VE:\u005cFeatureExtraction_Sumagui\u005cOutputs_Mindoro_Blk28Es/pt000038.tif
p1315
sS'end_time'
p1316
S'Thu Mar 31 09:16:51 2016'
p1317
sS'path'
p1318
VE:\u005cFeatureExtraction_Sumagui\u005cLAZ_Mindoro_Blk28Es/pt000038.laz
p1319
ssS'2641'
p1320
(dp1321
S'itemId'
p1322
I2641
sS'start_time'
p1323
S'Thu Mar 31 09:18:14 2016'
p1324
sS'worker_id'
p1325
S'2'
p1326
sS'output_path'
p1327
VE:\u005cFeatureExtraction_Sumagui\u005cOutputs_Mindoro_Blk28Es/pt000039.tif
p1328
sS'end_time'
p1329
S'Thu Mar 31 09:28:05 2016'
p1330
sS'path'
p1331
VE:\u005cFeatureExtraction_Sumagui\u005cLAZ_Mindoro_Blk28Es/pt000039.laz
p1332
ssS'2642'
p1333
(dp1334
S'itemId'
p1335
I2642
sS'start_time'
p1336
S'Thu Mar 31 09:18:28 2016'
p1337
sS'worker_id'
p1338
S'3'
p1339
sS'output_path'
p1340
VE:\u005cFeatureExtraction_Sumagui\u005cOutputs_Mindoro_Blk28Es/pt000040.tif
p1341
sS'end_time'
p1342
S'Thu Mar 31 09:22:46 2016'
p1343
sS'path'
p1344
VE:\u005cFeatureExtraction_Sumagui\u005cLAZ_Mindoro_Blk28Es/pt000040.laz
p1345
ssS'2643'
p1346
(dp1347
S'itemId'
p1348
I2643
sS'start_time'
p1349
S'Thu Mar 31 09:18:33 2016'
p1350
sS'worker_id'
p1351
S'0'
p1352
sS'output_path'
p1353
VE:\u005cFeatureExtraction_Sumagui\u005cOutputs_Mindoro_Blk28Es/pt000051.tif
p1354
sS'end_time'
p1355
S'Thu Mar 31 09:19:46 2016'
p1356
sS'path'
p1357
VE:\u005cFeatureExtraction_Sumagui\u005cLAZ_Mindoro_Blk28Es/pt000051.laz
p1358
ssS'2644'
p1359
(dp1360
S'itemId'
p1361
I2644
sS'start_time'
p1362
S'Thu Mar 31 09:19:52 2016'
p1363
sS'worker_id'
p1364
S'0'
p1365
sS'output_path'
p1366
VE:\u005cFeatureExtraction_Sumagui\u005cOutputs_Mindoro_Blk28Es/pt000058.tif
p1367
sS'end_time'
p1368
S'Thu Mar 31 09:20:39 2016'
p1369
sS'path'
p1370
VE:\u005cFeatureExtraction_Sumagui\u005cLAZ_Mindoro_Blk28Es/pt000058.laz
p1371
ssS'2645'
p1372
(dp1373
S'itemId'
p1374
I2645
sS'start_time'
p1375
S'Thu Mar 31 09:20:45 2016'
p1376
sS'worker_id'
p1377
S'0'
p1378
sS'output_path'
p1379
VE:\u005cFeatureExtraction_Sumagui\u005cOutputs_Mindoro_Blk28Es/pt000061.tif
p1380
sS'end_time'
p1381
S'Thu Mar 31 09:20:51 2016'
p1382
sS'path'
p1383
VE:\u005cFeatureExtraction_Sumagui\u005cLAZ_Mindoro_Blk28Es/pt000061.laz
p1384
ssS'2729'
p1385
(dp1386
S'itemId'
p1387
I2729
sS'start_time'
p1388
S'Fri Apr 01 11:30:07 2016'
p1389
sS'worker_id'
p1390
S'0'
p1391
sS'output_path'
p1392
VE:/FeatureExtractionOutputs/pt000069.tif
p1393
sS'end_time'
p1394
S'Fri Apr 01 11:31:19 2016'
p1395
sS'path'
p1396
VE:/testinput/pt000069.laz
p1397
sS'error_msg'
p1398
g119
ss.