(dp0
S'1397'
p1
(dp2
S'itemId'
p3
I1397
sS'start_time'
p4
S'Tue Mar 08 12:24:54 2016'
p5
sS'worker_id'
p6
S'1'
p7
sS'output_path'
p8
VC:/bertud_outputs//pt000002.tif
p9
sS'end_time'
p10
S'Tue Mar 08 12:25:11 2016'
p11
sS'path'
p12
VC:/bertud_inputs//pt000002.laz
p13
ssS'1399'
p14
(dp15
S'itemId'
p16
I1399
sS'start_time'
p17
S'Tue Mar 08 12:25:39 2016'
p18
sS'worker_id'
p19
S'1'
p20
sS'output_path'
p21
VC:/bertud_outputs//pt000015.tif
p22
sS'end_time'
p23
S'Tue Mar 08 12:25:56 2016'
p24
sS'path'
p25
VC:/bertud_inputs//pt000015.laz
p26
ssS'1398'
p27
(dp28
S'itemId'
p29
I1398
sS'start_time'
p30
S'Tue Mar 08 12:25:17 2016'
p31
sS'worker_id'
p32
S'1'
p33
sS'output_path'
p34
VC:/bertud_outputs//pt000012.tif
p35
sS'end_time'
p36
S'Tue Mar 08 12:25:33 2016'
p37
sS'path'
p38
VC:/bertud_inputs//pt000012.laz
p39
ssS'1403'
p40
(dp41
S'itemId'
p42
I1403
sS'start_time'
p43
S'Tue Mar 08 12:27:09 2016'
p44
sS'worker_id'
p45
S'1'
p46
sS'output_path'
p47
VC:/bertud_outputs//pt000120.tif
p48
sS'end_time'
p49
S'Tue Mar 08 12:27:26 2016'
p50
sS'path'
p51
VC:/bertud_inputs//pt000120.laz
p52
ssS'1402'
p53
(dp54
S'itemId'
p55
I1402
sS'start_time'
p56
S'Tue Mar 08 12:26:46 2016'
p57
sS'worker_id'
p58
S'1'
p59
sS'output_path'
p60
VC:/bertud_outputs//pt000115.tif
p61
sS'end_time'
p62
S'Tue Mar 08 12:27:03 2016'
p63
sS'path'
p64
VC:/bertud_inputs//pt000115.laz
p65
ssS'1401'
p66
(dp67
S'itemId'
p68
I1401
sS'start_time'
p69
S'Tue Mar 08 12:26:24 2016'
p70
sS'worker_id'
p71
S'1'
p72
sS'output_path'
p73
VC:/bertud_outputs//pt000113.tif
p74
sS'end_time'
p75
S'Tue Mar 08 12:26:40 2016'
p76
sS'path'
p77
VC:/bertud_inputs//pt000113.laz
p78
ssS'1400'
p79
(dp80
S'itemId'
p81
I1400
sS'start_time'
p82
S'Tue Mar 08 12:26:01 2016'
p83
sS'worker_id'
p84
S'1'
p85
sS'output_path'
p86
VC:/bertud_outputs//pt000024.tif
p87
sS'end_time'
p88
S'Tue Mar 08 12:26:18 2016'
p89
sS'path'
p90
VC:/bertud_inputs//pt000024.laz
p91
ssS'1406'
p92
(dp93
S'itemId'
p94
I1406
sS'start_time'
p95
S'Tue Mar 08 12:28:17 2016'
p96
sS'worker_id'
p97
S'1'
p98
sS'output_path'
p99
VC:/bertud_outputs//pt000128.tif
p100
sS'end_time'
p101
S'Tue Mar 08 12:28:34 2016'
p102
sS'path'
p103
VC:/bertud_inputs//pt000128.laz
p104
ssS'1405'
p105
(dp106
S'itemId'
p107
I1405
sS'start_time'
p108
S'Tue Mar 08 12:27:54 2016'
p109
sS'worker_id'
p110
S'1'
p111
sS'output_path'
p112
VC:/bertud_outputs//pt000127.tif
p113
sS'end_time'
p114
S'Tue Mar 08 12:28:11 2016'
p115
sS'path'
p116
VC:/bertud_inputs//pt000127.laz
p117
ssS'1404'
p118
(dp119
S'itemId'
p120
I1404
sS'start_time'
p121
S'Tue Mar 08 12:27:32 2016'
p122
sS'worker_id'
p123
S'1'
p124
sS'output_path'
p125
VC:/bertud_outputs//pt000121.tif
p126
sS'end_time'
p127
S'Tue Mar 08 12:27:48 2016'
p128
sS'path'
p129
VC:/bertud_inputs//pt000121.laz
p130
ss.