(dp0
S'977'
p1
ccopy_reg
_reconstructor
p2
(cworkitem
Workitem
p3
c__builtin__
object
p4
Ntp5
Rp6
(dp7
S'itemId'
p8
I977
sS'start_time'
p9
F1455948408.312
sS'worker_id'
p10
S'1'
p11
sS'output_path'
p12
VE:/FeatureExtractionOutputs/pt000113.tif
p13
sS'end_time'
p14
F1455948418.349
sS'path'
p15
VE:/FeatureExtractionV4/pipelinev6/inputs/ground/pt000113.laz
p16
sbsS'976'
p17
g2
(g3
g4
Ntp18
Rp19
(dp20
g8
I976
sg9
F1455948397.979
sg10
S'1'
p21
sg12
VE:/FeatureExtractionOutputs/pt000024.tif
p22
sg14
F1455948408.005
sg15
VE:/FeatureExtractionV4/pipelinev6/inputs/ground/pt000024.laz
p23
sbsS'975'
p24
g2
(g3
g4
Ntp25
Rp26
(dp27
g8
I975
sg9
F1455948387.687
sg10
S'1'
p28
sg12
VE:/FeatureExtractionOutputs/pt000015.tif
p29
sg14
F1455948397.717
sg15
VE:/FeatureExtractionV4/pipelinev6/inputs/ground/pt000015.laz
p30
sbsS'974'
p31
g2
(g3
g4
Ntp32
Rp33
(dp34
g8
I974
sg9
F1455948377.385
sg10
S'1'
p35
sg12
VE:/FeatureExtractionOutputs/pt000012.tif
p36
sg14
F1455948387.417
sg15
VE:/FeatureExtractionV4/pipelinev6/inputs/ground/pt000012.laz
p37
sbsS'973'
p38
g2
(g3
g4
Ntp39
Rp40
(dp41
g8
I973
sg9
F1455948367.076
sg10
S'1'
p42
sg12
VE:/FeatureExtractionOutputs/pt000002.tif
p43
sg14
F1455948377.114
sg15
VE:/FeatureExtractionV4/pipelinev6/inputs/ground/pt000002.laz
p44
sbsS'982'
p45
g2
(g3
g4
Ntp46
Rp47
(dp48
g8
I982
sg9
F1455948460.136
sg10
S'1'
p49
sg12
VE:/FeatureExtractionOutputs/pt000128.tif
p50
sg14
F1455948470.192
sg15
VE:/FeatureExtractionV4/pipelinev6/inputs/ground/pt000128.laz
p51
sbsS'980'
p52
g2
(g3
g4
Ntp53
Rp54
(dp55
g8
I980
sg9
F1455948439.381
sg10
S'1'
p56
sg12
VE:/FeatureExtractionOutputs/pt000121.tif
p57
sg14
F1455948449.43
sg15
VE:/FeatureExtractionV4/pipelinev6/inputs/ground/pt000121.laz
p58
sbsS'981'
p59
g2
(g3
g4
Ntp60
Rp61
(dp62
g8
I981
sg9
F1455948449.762
sg10
S'1'
p63
sg12
VE:/FeatureExtractionOutputs/pt000127.tif
p64
sg14
F1455948459.821
sg15
VE:/FeatureExtractionV4/pipelinev6/inputs/ground/pt000127.laz
p65
sbsS'979'
p66
g2
(g3
g4
Ntp67
Rp68
(dp69
g8
I979
sg9
F1455948429.008
sg10
S'1'
p70
sg12
VE:/FeatureExtractionOutputs/pt000120.tif
p71
sg14
F1455948439.073
sg15
VE:/FeatureExtractionV4/pipelinev6/inputs/ground/pt000120.laz
p72
sbsS'978'
p73
g2
(g3
g4
Ntp74
Rp75
(dp76
g8
I978
sg9
F1455948418.633
sg10
S'1'
p77
sg12
VE:/FeatureExtractionOutputs/pt000115.tif
p78
sg14
F1455948428.671
sg15
VE:/FeatureExtractionV4/pipelinev6/inputs/ground/pt000115.laz
p79
sbs.