(dp0
S'2713'
p1
(dp2
S'itemId'
p3
I2713
sS'start_time'
p4
S'Thu Mar 31 11:55:32 2016'
p5
sS'worker_id'
p6
S'0'
p7
sS'output_path'
p8
VE:\u005cFeatureExtraction_Sumagui\u005cOutputs_Mindoro_Blk28E/pt000193.tif
p9
sS'end_time'
p10
S'Thu Mar 31 11:58:00 2016'
p11
sS'path'
p12
VE:\u005cFeatureExtraction_Sumagui\u005cLAZ_Mindoro_Blk28E/pt000193.laz
p13
ssS'2710'
p14
(dp15
S'itemId'
p16
I2710
sS'start_time'
p17
S'Thu Mar 31 11:53:24 2016'
p18
sS'worker_id'
p19
S'2'
p20
sS'output_path'
p21
VE:\u005cFeatureExtraction_Sumagui\u005cOutputs_Mindoro_Blk28E/pt000186.tif
p22
sS'end_time'
p23
S'Thu Mar 31 11:55:55 2016'
p24
sS'path'
p25
VE:\u005cFeatureExtraction_Sumagui\u005cLAZ_Mindoro_Blk28E/pt000186.laz
p26
ssS'2711'
p27
(dp28
S'itemId'
p29
I2711
sS'start_time'
p30
S'Thu Mar 31 11:53:46 2016'
p31
sS'worker_id'
p32
S'0'
p33
sS'output_path'
p34
VE:\u005cFeatureExtraction_Sumagui\u005cOutputs_Mindoro_Blk28E/pt000191.tif
p35
sS'end_time'
p36
S'Thu Mar 31 11:55:26 2016'
p37
sS'path'
p38
VE:\u005cFeatureExtraction_Sumagui\u005cLAZ_Mindoro_Blk28E/pt000191.laz
p39
ssS'2716'
p40
(dp41
S'itemId'
p42
I2716
sS'start_time'
p43
S'Thu Mar 31 11:58:05 2016'
p44
sS'worker_id'
p45
S'0'
p46
sS'output_path'
p47
VE:\u005cFeatureExtraction_Sumagui\u005cOutputs_Mindoro_Blk28E/pt000196.tif
p48
sS'end_time'
p49
S'Thu Mar 31 11:59:33 2016'
p50
sS'path'
p51
VE:\u005cFeatureExtraction_Sumagui\u005cLAZ_Mindoro_Blk28E/pt000196.laz
p52
ssS'2714'
p53
(dp54
S'itemId'
p55
I2714
sS'start_time'
p56
S'Thu Mar 31 11:56:53 2016'
p57
sS'worker_id'
p58
S'1'
p59
sS'output_path'
p60
VE:\u005cFeatureExtraction_Sumagui\u005cOutputs_Mindoro_Blk28E/pt000194.tif
p61
sS'end_time'
p62
S'Thu Mar 31 12:03:10 2016'
p63
sS'path'
p64
VE:\u005cFeatureExtraction_Sumagui\u005cLAZ_Mindoro_Blk28E/pt000194.laz
p65
ssS'2715'
p66
(dp67
S'itemId'
p68
I2715
sS'start_time'
p69
S'Thu Mar 31 11:57:19 2016'
p70
sS'worker_id'
p71
S'2'
p72
sS'output_path'
p73
VE:\u005cFeatureExtraction_Sumagui\u005cOutputs_Mindoro_Blk28E/pt000195.tif
p74
sS'end_time'
p75
S'Thu Mar 31 11:58:26 2016'
p76
sS'path'
p77
VE:\u005cFeatureExtraction_Sumagui\u005cLAZ_Mindoro_Blk28E/pt000195.laz
p78
ssS'2653'
p79
(dp80
S'itemId'
p81
I2653
sS'start_time'
p82
S'Thu Mar 31 11:14:10 2016'
p83
sS'worker_id'
p84
S'0'
p85
sS'output_path'
p86
VE:\u005cFeatureExtraction_Sumagui\u005cOutputs_Mindoro_Blk28E/pt000078.tif
p87
sS'end_time'
p88
S'Thu Mar 31 11:17:12 2016'
p89
sS'path'
p90
VE:\u005cFeatureExtraction_Sumagui\u005cLAZ_Mindoro_Blk28E/pt000078.laz
p91
ssS'2652'
p92
(dp93
S'itemId'
p94
I2652
sS'start_time'
p95
S'Thu Mar 31 11:11:02 2016'
p96
sS'worker_id'
p97
S'0'
p98
sS'output_path'
p99
VE:\u005cFeatureExtraction_Sumagui\u005cOutputs_Mindoro_Blk28E/pt000060.tif
p100
sS'end_time'
p101
S'Thu Mar 31 11:14:04 2016'
p102
sS'path'
p103
VE:\u005cFeatureExtraction_Sumagui\u005cLAZ_Mindoro_Blk28E/pt000060.laz
p104
ssS'2718'
p105
(dp106
S'itemId'
p107
I2718
sS'start_time'
p108
S'Fri Apr 01 10:45:08 2016'
p109
sS'worker_id'
p110
S'0'
p111
sS'output_path'
p112
VE:/FeatureExtractionOutputs/pt000061.tif
p113
sS'end_time'
p114
S'Fri Apr 01 10:45:17 2016'
p115
sS'path'
p116
VE:/testinput/pt000061.laz
p117
sS'error_msg'
p118
S''
p119
ssS'2719'
p120
(dp121
S'itemId'
p122
I2719
sS'start_time'
p123
S'Fri Apr 01 10:45:23 2016'
p124
sS'worker_id'
p125
S'0'
p126
sS'output_path'
p127
VE:/FeatureExtractionOutputs/pt000062.tif
p128
sS'end_time'
p129
S'Fri Apr 01 10:46:31 2016'
p130
sS'path'
p131
VE:/testinput/pt000062.laz
p132
sS'error_msg'
p133
g119
ssS'2842'
p134
(dp135
S'itemId'
p136
I2842
sS'start_time'
p137
S'Mon Apr 04 15:38:22 2016'
p138
sS'worker_id'
p139
S'2'
p140
sS'output_path'
p141
VE:\u005cFeatureExtraction_Agsalin\u005cOutputs_Mindoro_Blk28Bs/pt000059.tif
p142
sS'end_time'
p143
S'Mon Apr 04 15:40:44 2016'
p144
sS'path'
p145
VE:/FeatureExtraction_Agsalin/LAZ_Mindoro_Blk28Bs/pt000059.laz
p146
sS'error_msg'
p147
g119
ssS'2843'
p148
(dp149
S'itemId'
p150
I2843
sS'start_time'
p151
S'Mon Apr 04 15:42:04 2016'
p152
sS'worker_id'
p153
S'2'
p154
sS'output_path'
p155
VE:\u005cFeatureExtraction_Agsalin\u005cOutputs_Mindoro_Blk28Bs/pt000069.tif
p156
sS'end_time'
p157
S'Mon Apr 04 15:43:48 2016'
p158
sS'path'
p159
VE:/FeatureExtraction_Agsalin/LAZ_Mindoro_Blk28Bs/pt000069.laz
p160
sS'error_msg'
p161
g119
ssS'2840'
p162
(dp163
S'itemId'
p164
I2840
sS'start_time'
p165
S'Mon Apr 04 15:31:42 2016'
p166
sS'worker_id'
p167
S'2'
p168
sS'output_path'
p169
VE:\u005cFeatureExtraction_Agsalin\u005cOutputs_Mindoro_Blk28Bs/pt000052.tif
p170
sS'end_time'
p171
S'Mon Apr 04 15:33:34 2016'
p172
sS'path'
p173
VE:/FeatureExtraction_Agsalin/LAZ_Mindoro_Blk28Bs/pt000052.laz
p174
sS'error_msg'
p175
g119
ssS'2841'
p176
(dp177
S'itemId'
p178
I2841
sS'start_time'
p179
S'Mon Apr 04 15:35:16 2016'
p180
sS'worker_id'
p181
S'2'
p182
sS'output_path'
p183
VE:\u005cFeatureExtraction_Agsalin\u005cOutputs_Mindoro_Blk28Bs/pt000054.tif
p184
sS'end_time'
p185
S'Mon Apr 04 15:36:47 2016'
p186
sS'path'
p187
VE:/FeatureExtraction_Agsalin/LAZ_Mindoro_Blk28Bs/pt000054.laz
p188
sS'error_msg'
p189
g119
ssS'2844'
p190
(dp191
S'itemId'
p192
I2844
sS'start_time'
p193
S'Mon Apr 04 15:44:57 2016'
p194
sS'worker_id'
p195
S'2'
p196
sS'output_path'
p197
VE:\u005cFeatureExtraction_Agsalin\u005cOutputs_Mindoro_Blk28Bs/pt000070.tif
p198
sS'end_time'
p199
S'Mon Apr 04 15:47:09 2016'
p200
sS'path'
p201
VE:/FeatureExtraction_Agsalin/LAZ_Mindoro_Blk28Bs/pt000070.laz
p202
sS'error_msg'
p203
g119
ssS'2650'
p204
(dp205
S'itemId'
p206
I2650
sS'start_time'
p207
S'Thu Mar 31 11:11:20 2016'
p208
sS'worker_id'
p209
S'3'
p210
sS'output_path'
p211
VE:\u005cFeatureExtraction_Sumagui\u005cOutputs_Mindoro_Blk28E/pt000054.tif
p212
sS'end_time'
p213
S'Thu Mar 31 11:12:51 2016'
p214
sS'path'
p215
VE:\u005cFeatureExtraction_Sumagui\u005cLAZ_Mindoro_Blk28E/pt000054.laz
p216
ssS'2709'
p217
(dp218
S'itemId'
p219
I2709
sS'start_time'
p220
S'Thu Mar 31 11:50:42 2016'
p221
sS'worker_id'
p222
S'0'
p223
sS'output_path'
p224
VE:\u005cFeatureExtraction_Sumagui\u005cOutputs_Mindoro_Blk28E/pt000175.tif
p225
sS'end_time'
p226
S'Thu Mar 31 11:53:40 2016'
p227
sS'path'
p228
VE:\u005cFeatureExtraction_Sumagui\u005cLAZ_Mindoro_Blk28E/pt000175.laz
p229
ssS'2708'
p230
(dp231
S'itemId'
p232
I2708
sS'start_time'
p233
S'Thu Mar 31 11:48:39 2016'
p234
sS'worker_id'
p235
S'1'
p236
sS'output_path'
p237
VE:\u005cFeatureExtraction_Sumagui\u005cOutputs_Mindoro_Blk28E/pt000174.tif
p238
sS'end_time'
p239
S'Thu Mar 31 11:55:45 2016'
p240
sS'path'
p241
VE:\u005cFeatureExtraction_Sumagui\u005cLAZ_Mindoro_Blk28E/pt000174.laz
p242
ssS'2705'
p243
(dp244
S'itemId'
p245
I2705
sS'start_time'
p246
S'Thu Mar 31 11:47:12 2016'
p247
sS'worker_id'
p248
S'0'
p249
sS'output_path'
p250
VE:\u005cFeatureExtraction_Sumagui\u005cOutputs_Mindoro_Blk28E/pt000171.tif
p251
sS'end_time'
p252
S'Thu Mar 31 11:50:37 2016'
p253
sS'path'
p254
VE:\u005cFeatureExtraction_Sumagui\u005cLAZ_Mindoro_Blk28E/pt000171.laz
p255
ssS'2704'
p256
(dp257
S'itemId'
p258
I2704
sS'start_time'
p259
S'Thu Mar 31 11:45:08 2016'
p260
sS'worker_id'
p261
S'0'
p262
sS'output_path'
p263
VE:\u005cFeatureExtraction_Sumagui\u005cOutputs_Mindoro_Blk28E/pt000170.tif
p264
sS'end_time'
p265
S'Thu Mar 31 11:47:06 2016'
p266
sS'path'
p267
VE:\u005cFeatureExtraction_Sumagui\u005cLAZ_Mindoro_Blk28E/pt000170.laz
p268
ssS'2707'
p269
(dp270
S'itemId'
p271
I2707
sS'start_time'
p272
S'Thu Mar 31 11:48:30 2016'
p273
sS'worker_id'
p274
S'2'
p275
sS'output_path'
p276
VE:\u005cFeatureExtraction_Sumagui\u005cOutputs_Mindoro_Blk28E/pt000173.tif
p277
sS'end_time'
p278
S'Thu Mar 31 11:50:51 2016'
p279
sS'path'
p280
VE:\u005cFeatureExtraction_Sumagui\u005cLAZ_Mindoro_Blk28E/pt000173.laz
p281
ssS'2706'
p282
(dp283
S'itemId'
p284
I2706
sS'start_time'
p285
S'Thu Mar 31 11:47:45 2016'
p286
sS'worker_id'
p287
S'3'
p288
sS'output_path'
p289
VE:\u005cFeatureExtraction_Sumagui\u005cOutputs_Mindoro_Blk28E/pt000172.tif
p290
sS'end_time'
p291
S'Thu Mar 31 11:50:23 2016'
p292
sS'path'
p293
VE:\u005cFeatureExtraction_Sumagui\u005cLAZ_Mindoro_Blk28E/pt000172.laz
p294
ssS'2701'
p295
(dp296
S'itemId'
p297
I2701
sS'start_time'
p298
S'Thu Mar 31 11:42:50 2016'
p299
sS'worker_id'
p300
S'2'
p301
sS'output_path'
p302
VE:\u005cFeatureExtraction_Sumagui\u005cOutputs_Mindoro_Blk28E/pt000167.tif
p303
sS'end_time'
p304
S'Thu Mar 31 11:43:22 2016'
p305
sS'path'
p306
VE:\u005cFeatureExtraction_Sumagui\u005cLAZ_Mindoro_Blk28E/pt000167.laz
p307
ssS'2700'
p308
(dp309
S'itemId'
p310
I2700
sS'start_time'
p311
S'Thu Mar 31 11:42:39 2016'
p312
sS'worker_id'
p313
S'0'
p314
sS'output_path'
p315
VE:\u005cFeatureExtraction_Sumagui\u005cOutputs_Mindoro_Blk28E/pt000166.tif
p316
sS'end_time'
p317
S'Thu Mar 31 11:45:02 2016'
p318
sS'path'
p319
VE:\u005cFeatureExtraction_Sumagui\u005cLAZ_Mindoro_Blk28E/pt000166.laz
p320
ssS'2703'
p321
(dp322
S'itemId'
p323
I2703
sS'start_time'
p324
S'Thu Mar 31 11:44:18 2016'
p325
sS'worker_id'
p326
S'1'
p327
sS'output_path'
p328
VE:\u005cFeatureExtraction_Sumagui\u005cOutputs_Mindoro_Blk28E/pt000169.tif
p329
sS'end_time'
p330
S'Thu Mar 31 11:47:37 2016'
p331
sS'path'
p332
VE:\u005cFeatureExtraction_Sumagui\u005cLAZ_Mindoro_Blk28E/pt000169.laz
p333
ssS'2702'
p334
(dp335
S'itemId'
p336
I2702
sS'start_time'
p337
S'Thu Mar 31 11:44:29 2016'
p338
sS'worker_id'
p339
S'2'
p340
sS'output_path'
p341
VE:\u005cFeatureExtraction_Sumagui\u005cOutputs_Mindoro_Blk28E/pt000168.tif
p342
sS'end_time'
p343
S'Thu Mar 31 11:46:26 2016'
p344
sS'path'
p345
VE:\u005cFeatureExtraction_Sumagui\u005cLAZ_Mindoro_Blk28E/pt000168.laz
p346
ssS'2778'
p347
(dp348
S'itemId'
p349
I2778
sS'start_time'
p350
S'Fri Apr 01 17:20:16 2016'
p351
sS'worker_id'
p352
S'0'
p353
sS'output_path'
p354
VE:\u005cFeatureExtraction_Agsalin\u005cAgsalin_Outputs/pt000056.tif
p355
sS'end_time'
p356
S'Fri Apr 01 17:24:02 2016'
p357
sS'path'
p358
VE:\u005cFeatureExtraction_Agsalin\u005cLAZ_Mindoro_Blk28B/pt000056.laz
p359
sS'error_msg'
p360
g119
ssS'2779'
p361
(dp362
S'itemId'
p363
I2779
sS'start_time'
p364
S'Fri Apr 01 17:23:06 2016'
p365
sS'worker_id'
p366
S'1'
p367
sS'output_path'
p368
VE:\u005cFeatureExtraction_Agsalin\u005cAgsalin_Outputs/pt000057.tif
p369
sS'end_time'
p370
S'Fri Apr 01 17:29:57 2016'
p371
sS'path'
p372
VE:\u005cFeatureExtraction_Agsalin\u005cLAZ_Mindoro_Blk28B/pt000057.laz
p373
sS'error_msg'
p374
g119
ssS'2726'
p375
(dp376
S'itemId'
p377
I2726
sS'start_time'
p378
S'Fri Apr 01 10:49:04 2016'
p379
sS'worker_id'
p380
S'0'
p381
sS'output_path'
p382
VE:/FeatureExtractionOutputs/pt000069.tif
p383
sS'end_time'
p384
S'Fri Apr 01 10:50:15 2016'
p385
sS'path'
p386
VE:/testinput/pt000069.laz
p387
sS'error_msg'
p388
g119
ssS'2770'
p389
(dp390
S'itemId'
p391
I2770
sS'start_time'
p392
S'Fri Apr 01 17:10:45 2016'
p393
sS'worker_id'
p394
S'2'
p395
sS'output_path'
p396
VE:\u005cFeatureExtraction_Agsalin\u005cAgsalin_Outputs/pt000007.tif
p397
sS'end_time'
p398
S'Fri Apr 01 17:13:28 2016'
p399
sS'path'
p400
VE:\u005cFeatureExtraction_Agsalin\u005cLAZ_Mindoro_Blk28B/pt000007.laz
p401
sS'error_msg'
p402
g119
ssS'2771'
p403
(dp404
S'itemId'
p405
I2771
sS'start_time'
p406
S'Fri Apr 01 17:10:33 2016'
p407
sS'worker_id'
p408
S'1'
p409
sS'output_path'
p410
VE:\u005cFeatureExtraction_Agsalin\u005cAgsalin_Outputs/pt000008.tif
p411
sS'end_time'
p412
S'Fri Apr 01 17:18:58 2016'
p413
sS'path'
p414
VE:\u005cFeatureExtraction_Agsalin\u005cLAZ_Mindoro_Blk28B/pt000008.laz
p415
sS'error_msg'
p416
g119
ssS'2772'
p417
(dp418
S'itemId'
p419
I2772
sS'start_time'
p420
S'Fri Apr 01 17:10:09 2016'
p421
sS'worker_id'
p422
S'3'
p423
sS'output_path'
p424
VE:\u005cFeatureExtraction_Agsalin\u005cAgsalin_Outputs/pt000009.tif
p425
sS'end_time'
p426
S'Fri Apr 01 17:10:56 2016'
p427
sS'path'
p428
VE:\u005cFeatureExtraction_Agsalin\u005cLAZ_Mindoro_Blk28B/pt000009.laz
p429
sS'error_msg'
p430
g119
ssS'2774'
p431
(dp432
S'itemId'
p433
I2774
sS'start_time'
p434
S'Fri Apr 01 17:12:37 2016'
p435
sS'worker_id'
p436
S'0'
p437
sS'output_path'
p438
VE:\u005cFeatureExtraction_Agsalin\u005cAgsalin_Outputs/pt000012.tif
p439
sS'end_time'
p440
S'Fri Apr 01 17:13:51 2016'
p441
sS'path'
p442
VE:\u005cFeatureExtraction_Agsalin\u005cLAZ_Mindoro_Blk28B/pt000012.laz
p443
sS'error_msg'
p444
g119
ssS'2775'
p445
(dp446
S'itemId'
p447
I2775
sS'start_time'
p448
S'Fri Apr 01 17:13:56 2016'
p449
sS'worker_id'
p450
S'0'
p451
sS'output_path'
p452
VE:\u005cFeatureExtraction_Agsalin\u005cAgsalin_Outputs/pt000013.tif
p453
sS'end_time'
p454
S'Fri Apr 01 17:17:23 2016'
p455
sS'path'
p456
VE:\u005cFeatureExtraction_Agsalin\u005cLAZ_Mindoro_Blk28B/pt000013.laz
p457
sS'error_msg'
p458
g119
ssS'2776'
p459
(dp460
S'itemId'
p461
I2776
sS'start_time'
p462
S'Fri Apr 01 17:17:57 2016'
p463
sS'worker_id'
p464
S'2'
p465
sS'output_path'
p466
VE:\u005cFeatureExtraction_Agsalin\u005cAgsalin_Outputs/pt000015.tif
p467
sS'end_time'
p468
S'Fri Apr 01 17:20:39 2016'
p469
sS'path'
p470
VE:\u005cFeatureExtraction_Agsalin\u005cLAZ_Mindoro_Blk28B/pt000015.laz
p471
sS'error_msg'
p472
g119
ssS'2777'
p473
(dp474
S'itemId'
p475
I2777
sS'start_time'
p476
S'Fri Apr 01 17:17:29 2016'
p477
sS'worker_id'
p478
S'0'
p479
sS'output_path'
p480
VE:\u005cFeatureExtraction_Agsalin\u005cAgsalin_Outputs/pt000019.tif
p481
sS'end_time'
p482
S'Fri Apr 01 17:20:11 2016'
p483
sS'path'
p484
VE:\u005cFeatureExtraction_Agsalin\u005cLAZ_Mindoro_Blk28B/pt000019.laz
p485
sS'error_msg'
p486
g119
ssS'2751'
p487
(dp488
S'itemId'
p489
I2751
sS'start_time'
p490
S'Fri Apr 01 14:28:27 2016'
p491
sS'worker_id'
p492
S'0'
p493
sS'output_path'
p494
VE:/FeatureExtractionOutputs/pt000061.tif
p495
sS'end_time'
p496
S'Fri Apr 01 14:28:33 2016'
p497
sS'path'
p498
VE:/testinput/pt000061.laz
p499
sS'error_msg'
p500
g119
ssS'2828'
p501
(dp502
S'itemId'
p503
I2828
sS'start_time'
p504
S'Mon Apr 04 15:04:46 2016'
p505
sS'worker_id'
p506
S'0'
p507
sS'output_path'
p508
VE:\u005cFeatureExtraction_Agsalin\u005cOutputs_Mindoro_Blk28Bs/pt000040.tif
p509
sS'end_time'
p510
S'Mon Apr 04 15:06:59 2016'
p511
sS'path'
p512
VE:/FeatureExtraction_Agsalin/LAZ_Mindoro_Blk28Bs/pt000040.laz
p513
sS'error_msg'
p514
g119
ssS'2829'
p515
(dp516
S'itemId'
p517
I2829
sS'start_time'
p518
S'Mon Apr 04 15:05:35 2016'
p519
sS'worker_id'
p520
S'2'
p521
sS'output_path'
p522
VE:\u005cFeatureExtraction_Agsalin\u005cOutputs_Mindoro_Blk28Bs/pt000041.tif
p523
sS'end_time'
p524
S'Mon Apr 04 15:09:09 2016'
p525
sS'path'
p526
VE:/FeatureExtraction_Agsalin/LAZ_Mindoro_Blk28Bs/pt000041.laz
p527
sS'error_msg'
p528
g119
ssS'2824'
p529
(dp530
S'itemId'
p531
I2824
sS'start_time'
p532
S'Mon Apr 04 14:58:14 2016'
p533
sS'worker_id'
p534
S'2'
p535
sS'output_path'
p536
VE:\u005cFeatureExtraction_Agsalin\u005cOutputs_Mindoro_Blk28Bs/pt000036.tif
p537
sS'end_time'
p538
S'Mon Apr 04 15:00:21 2016'
p539
sS'path'
p540
VE:/FeatureExtraction_Agsalin/LAZ_Mindoro_Blk28Bs/pt000036.laz
p541
sS'error_msg'
p542
g119
ssS'2825'
p543
(dp544
S'itemId'
p545
I2825
sS'start_time'
p546
S'Mon Apr 04 14:59:33 2016'
p547
sS'worker_id'
p548
S'0'
p549
sS'output_path'
p550
VE:\u005cFeatureExtraction_Agsalin\u005cOutputs_Mindoro_Blk28Bs/pt000037.tif
p551
sS'end_time'
p552
S'Mon Apr 04 15:01:26 2016'
p553
sS'path'
p554
VE:/FeatureExtraction_Agsalin/LAZ_Mindoro_Blk28Bs/pt000037.laz
p555
sS'error_msg'
p556
g119
ssS'2826'
p557
(dp558
S'itemId'
p559
I2826
sS'start_time'
p560
S'Mon Apr 04 15:01:32 2016'
p561
sS'worker_id'
p562
S'0'
p563
sS'output_path'
p564
VE:\u005cFeatureExtraction_Agsalin\u005cOutputs_Mindoro_Blk28Bs/pt000038.tif
p565
sS'end_time'
p566
S'Mon Apr 04 15:03:51 2016'
p567
sS'path'
p568
VE:/FeatureExtraction_Agsalin/LAZ_Mindoro_Blk28Bs/pt000038.laz
p569
sS'error_msg'
p570
g119
ssS'2827'
p571
(dp572
S'itemId'
p573
I2827
sS'start_time'
p574
S'Mon Apr 04 15:03:57 2016'
p575
sS'worker_id'
p576
S'0'
p577
sS'output_path'
p578
VE:\u005cFeatureExtraction_Agsalin\u005cOutputs_Mindoro_Blk28Bs/pt000039.tif
p579
sS'end_time'
p580
S'Mon Apr 04 15:04:41 2016'
p581
sS'path'
p582
VE:/FeatureExtraction_Agsalin/LAZ_Mindoro_Blk28Bs/pt000039.laz
p583
sS'error_msg'
p584
g119
ssS'2820'
p585
(dp586
S'itemId'
p587
I2820
sS'start_time'
p588
S'Mon Apr 04 14:56:42 2016'
p589
sS'worker_id'
p590
S'0'
p591
sS'output_path'
p592
VE:\u005cFeatureExtraction_Agsalin\u005cOutputs_Mindoro_Blk28Bs/pt000032.tif
p593
sS'end_time'
p594
S'Mon Apr 04 14:59:27 2016'
p595
sS'path'
p596
VE:/FeatureExtraction_Agsalin/LAZ_Mindoro_Blk28Bs/pt000032.laz
p597
sS'error_msg'
p598
g119
ssS'2822'
p599
(dp600
S'itemId'
p601
I2822
sS'start_time'
p602
S'Mon Apr 04 14:56:44 2016'
p603
sS'worker_id'
p604
S'2'
p605
sS'output_path'
p606
VE:\u005cFeatureExtraction_Agsalin\u005cOutputs_Mindoro_Blk28Bs/pt000034.tif
p607
sS'end_time'
p608
S'Mon Apr 04 14:57:30 2016'
p609
sS'path'
p610
VE:/FeatureExtraction_Agsalin/LAZ_Mindoro_Blk28Bs/pt000034.laz
p611
sS'error_msg'
p612
g119
ssS'2786'
p613
(dp614
S'itemId'
p615
I2786
sS'start_time'
p616
S'Fri Apr 01 17:36:03 2016'
p617
sS'worker_id'
p618
S'0'
p619
sS'output_path'
p620
VE:\u005cFeatureExtraction_Agsalin\u005cAgsalin_Outputs/pt000072.tif
p621
sS'end_time'
p622
S'Fri Apr 01 17:39:24 2016'
p623
sS'path'
p624
VE:\u005cFeatureExtraction_Agsalin\u005cLAZ_Mindoro_Blk28B/pt000072.laz
p625
sS'error_msg'
p626
g119
ssS'2781'
p627
(dp628
S'itemId'
p629
I2781
sS'start_time'
p630
S'Fri Apr 01 17:25:33 2016'
p631
sS'worker_id'
p632
S'2'
p633
sS'output_path'
p634
VE:\u005cFeatureExtraction_Agsalin\u005cAgsalin_Outputs/pt000059.tif
p635
sS'end_time'
p636
S'Fri Apr 01 17:28:01 2016'
p637
sS'path'
p638
VE:\u005cFeatureExtraction_Agsalin\u005cLAZ_Mindoro_Blk28B/pt000059.laz
p639
sS'error_msg'
p640
g119
ssS'2780'
p641
(dp642
S'itemId'
p643
I2780
sS'start_time'
p644
S'Fri Apr 01 17:24:08 2016'
p645
sS'worker_id'
p646
S'0'
p647
sS'output_path'
p648
VE:\u005cFeatureExtraction_Agsalin\u005cAgsalin_Outputs/pt000058.tif
p649
sS'end_time'
p650
S'Fri Apr 01 17:26:36 2016'
p651
sS'path'
p652
VE:\u005cFeatureExtraction_Agsalin\u005cLAZ_Mindoro_Blk28B/pt000058.laz
p653
sS'error_msg'
p654
g119
ssS'2783'
p655
(dp656
S'itemId'
p657
I2783
sS'start_time'
p658
S'Fri Apr 01 17:29:36 2016'
p659
sS'worker_id'
p660
S'0'
p661
sS'output_path'
p662
VE:\u005cFeatureExtraction_Agsalin\u005cAgsalin_Outputs/pt000067.tif
p663
sS'end_time'
p664
S'Fri Apr 01 17:35:57 2016'
p665
sS'path'
p666
VE:\u005cFeatureExtraction_Agsalin\u005cLAZ_Mindoro_Blk28B/pt000067.laz
p667
sS'error_msg'
p668
g119
ssS'2782'
p669
(dp670
S'itemId'
p671
I2782
sS'start_time'
p672
S'Fri Apr 01 17:26:42 2016'
p673
sS'worker_id'
p674
S'0'
p675
sS'output_path'
p676
VE:\u005cFeatureExtraction_Agsalin\u005cAgsalin_Outputs/pt000060.tif
p677
sS'end_time'
p678
S'Fri Apr 01 17:29:30 2016'
p679
sS'path'
p680
VE:\u005cFeatureExtraction_Agsalin\u005cLAZ_Mindoro_Blk28B/pt000060.laz
p681
sS'error_msg'
p682
g119
ssS'2769'
p683
(dp684
S'itemId'
p685
I2769
sS'start_time'
p686
S'Fri Apr 01 17:10:05 2016'
p687
sS'worker_id'
p688
S'0'
p689
sS'output_path'
p690
VE:\u005cFeatureExtraction_Agsalin\u005cAgsalin_Outputs/pt000006.tif
p691
sS'end_time'
p692
S'Fri Apr 01 17:12:32 2016'
p693
sS'path'
p694
VE:\u005cFeatureExtraction_Agsalin\u005cLAZ_Mindoro_Blk28B/pt000006.laz
p695
sS'error_msg'
p696
g119
ssS'2768'
p697
(dp698
S'itemId'
p699
I2768
sS'start_time'
p700
S'Fri Apr 01 15:27:15 2016'
p701
sS'worker_id'
p702
S'0'
p703
sS'output_path'
p704
VE:/FeatureExtractionOutputs/pt000127.tif
p705
sS'end_time'
p706
S'Fri Apr 01 15:28:23 2016'
p707
sS'path'
p708
VE:/testinput/pt000127.laz
p709
sS'error_msg'
p710
g119
ssS'2699'
p711
(dp712
S'itemId'
p713
I2699
sS'start_time'
p714
S'Thu Mar 31 11:41:16 2016'
p715
sS'worker_id'
p716
S'3'
p717
sS'output_path'
p718
VE:\u005cFeatureExtraction_Sumagui\u005cOutputs_Mindoro_Blk28E/pt000165.tif
p719
sS'end_time'
p720
S'Thu Mar 31 11:43:09 2016'
p721
sS'path'
p722
VE:\u005cFeatureExtraction_Sumagui\u005cLAZ_Mindoro_Blk28E/pt000165.laz
p723
ssS'2761'
p724
(dp725
S'itemId'
p726
I2761
sS'start_time'
p727
S'Fri Apr 01 15:24:04 2016'
p728
sS'worker_id'
p729
S'0'
p730
sS'output_path'
p731
VE:/FeatureExtractionOutputs/pt000021.tif
p732
sS'end_time'
p733
S'Fri Apr 01 15:24:10 2016'
p734
sS'path'
p735
VE:/testinput/pt000021.laz
p736
sS'error_msg'
p737
g119
ssS'2760'
p738
(dp739
S'itemId'
p740
I2760
sS'start_time'
p741
S'Fri Apr 01 15:22:49 2016'
p742
sS'worker_id'
p743
S'0'
p744
sS'output_path'
p745
VE:/FeatureExtractionOutputs/pt000011.tif
p746
sS'end_time'
p747
S'Fri Apr 01 15:23:58 2016'
p748
sS'path'
p749
VE:/testinput/pt000011.laz
p750
sS'error_msg'
p751
g119
ssS'2767'
p752
(dp753
S'itemId'
p754
I2767
sS'start_time'
p755
S'Fri Apr 01 15:26:02 2016'
p756
sS'worker_id'
p757
S'0'
p758
sS'output_path'
p759
VE:/FeatureExtractionOutputs/pt000122.tif
p760
sS'end_time'
p761
S'Fri Apr 01 15:27:10 2016'
p762
sS'path'
p763
VE:/testinput/pt000122.laz
p764
sS'error_msg'
p765
g119
ssS'2766'
p766
(dp767
S'itemId'
p768
I2766
sS'start_time'
p769
S'Fri Apr 01 15:24:48 2016'
p770
sS'worker_id'
p771
S'0'
p772
sS'output_path'
p773
VE:/FeatureExtractionOutputs/pt000069.tif
p774
sS'end_time'
p775
S'Fri Apr 01 15:25:56 2016'
p776
sS'path'
p777
VE:/testinput/pt000069.laz
p778
sS'error_msg'
p779
g119
ssS'2764'
p780
(dp781
S'itemId'
p782
I2764
sS'start_time'
p783
S'Fri Apr 01 15:24:29 2016'
p784
sS'worker_id'
p785
S'0'
p786
sS'output_path'
p787
VE:/FeatureExtractionOutputs/pt000061.tif
p788
sS'end_time'
p789
S'Fri Apr 01 15:24:35 2016'
p790
sS'path'
p791
VE:/testinput/pt000061.laz
p792
sS'error_msg'
p793
g119
ssS'2646'
p794
(dp795
S'itemId'
p796
I2646
sS'start_time'
p797
S'Thu Mar 31 09:20:57 2016'
p798
sS'worker_id'
p799
S'0'
p800
sS'output_path'
p801
VE:\u005cFeatureExtraction_Sumagui\u005cOutputs_Mindoro_Blk28Es/pt000062.tif
p802
sS'end_time'
p803
S'Thu Mar 31 09:22:04 2016'
p804
sS'path'
p805
VE:\u005cFeatureExtraction_Sumagui\u005cLAZ_Mindoro_Blk28Es/pt000062.laz
p806
ssS'2839'
p807
(dp808
S'itemId'
p809
I2839
sS'start_time'
p810
S'Mon Apr 04 15:28:12 2016'
p811
sS'worker_id'
p812
S'2'
p813
sS'output_path'
p814
VE:\u005cFeatureExtraction_Agsalin\u005cOutputs_Mindoro_Blk28Bs/pt000051.tif
p815
sS'end_time'
p816
S'Mon Apr 04 15:30:10 2016'
p817
sS'path'
p818
VE:/FeatureExtraction_Agsalin/LAZ_Mindoro_Blk28Bs/pt000051.laz
p819
sS'error_msg'
p820
g119
ssS'2838'
p821
(dp822
S'itemId'
p823
I2838
sS'start_time'
p824
S'Mon Apr 04 15:22:29 2016'
p825
sS'worker_id'
p826
S'2'
p827
sS'output_path'
p828
VE:\u005cFeatureExtraction_Agsalin\u005cOutputs_Mindoro_Blk28Bs/pt000050.tif
p829
sS'end_time'
p830
S'Mon Apr 04 15:26:42 2016'
p831
sS'path'
p832
VE:/FeatureExtraction_Agsalin/LAZ_Mindoro_Blk28Bs/pt000050.laz
p833
sS'error_msg'
p834
g119
ssS'2837'
p835
(dp836
S'itemId'
p837
I2837
sS'start_time'
p838
S'Mon Apr 04 15:21:54 2016'
p839
sS'worker_id'
p840
S'2'
p841
sS'output_path'
p842
VE:\u005cFeatureExtraction_Agsalin\u005cOutputs_Mindoro_Blk28Bs/pt000049.tif
p843
sS'end_time'
p844
S'Mon Apr 04 15:22:05 2016'
p845
sS'path'
p846
VE:/FeatureExtraction_Agsalin/LAZ_Mindoro_Blk28Bs/pt000049.laz
p847
sS'error_msg'
p848
g119
ssS'2836'
p849
(dp850
S'itemId'
p851
I2836
sS'start_time'
p852
S'Mon Apr 04 15:18:30 2016'
p853
sS'worker_id'
p854
S'2'
p855
sS'output_path'
p856
VE:\u005cFeatureExtraction_Agsalin\u005cOutputs_Mindoro_Blk28Bs/pt000048.tif
p857
sS'end_time'
p858
S'Mon Apr 04 15:20:28 2016'
p859
sS'path'
p860
VE:/FeatureExtraction_Agsalin/LAZ_Mindoro_Blk28Bs/pt000048.laz
p861
sS'error_msg'
p862
g119
ssS'2834'
p863
(dp864
S'itemId'
p865
I2834
sS'start_time'
p866
S'Mon Apr 04 15:15:34 2016'
p867
sS'worker_id'
p868
S'2'
p869
sS'output_path'
p870
VE:\u005cFeatureExtraction_Agsalin\u005cOutputs_Mindoro_Blk28Bs/pt000046.tif
p871
sS'end_time'
p872
S'Mon Apr 04 15:16:41 2016'
p873
sS'path'
p874
VE:/FeatureExtraction_Agsalin/LAZ_Mindoro_Blk28Bs/pt000046.laz
p875
sS'error_msg'
p876
g119
ssS'2833'
p877
(dp878
S'itemId'
p879
I2833
sS'start_time'
p880
S'Mon Apr 04 15:13:10 2016'
p881
sS'worker_id'
p882
S'0'
p883
sS'output_path'
p884
VE:\u005cFeatureExtraction_Agsalin\u005cOutputs_Mindoro_Blk28Bs/pt000045.tif
p885
sS'end_time'
p886
S'Mon Apr 04 15:16:33 2016'
p887
sS'path'
p888
VE:/FeatureExtraction_Agsalin/LAZ_Mindoro_Blk28Bs/pt000045.laz
p889
sS'error_msg'
p890
g119
ssS'2832'
p891
(dp892
S'itemId'
p893
I2832
sS'start_time'
p894
S'Mon Apr 04 15:10:14 2016'
p895
sS'worker_id'
p896
S'0'
p897
sS'output_path'
p898
VE:\u005cFeatureExtraction_Agsalin\u005cOutputs_Mindoro_Blk28Bs/pt000044.tif
p899
sS'end_time'
p900
S'Mon Apr 04 15:13:04 2016'
p901
sS'path'
p902
VE:/FeatureExtraction_Agsalin/LAZ_Mindoro_Blk28Bs/pt000044.laz
p903
sS'error_msg'
p904
g119
ssS'2830'
p905
(dp906
S'itemId'
p907
I2830
sS'start_time'
p908
S'Mon Apr 04 15:07:05 2016'
p909
sS'worker_id'
p910
S'0'
p911
sS'output_path'
p912
VE:\u005cFeatureExtraction_Agsalin\u005cOutputs_Mindoro_Blk28Bs/pt000042.tif
p913
sS'end_time'
p914
S'Mon Apr 04 15:10:02 2016'
p915
sS'path'
p916
VE:/FeatureExtraction_Agsalin/LAZ_Mindoro_Blk28Bs/pt000042.laz
p917
sS'error_msg'
p918
g119
ssS'2690'
p919
(dp920
S'itemId'
p921
I2690
sS'start_time'
p922
S'Thu Mar 31 11:30:38 2016'
p923
sS'worker_id'
p924
S'0'
p925
sS'output_path'
p926
VE:\u005cFeatureExtraction_Sumagui\u005cOutputs_Mindoro_Blk28E/pt000092.tif
p927
sS'end_time'
p928
S'Thu Mar 31 11:38:33 2016'
p929
sS'path'
p930
VE:\u005cFeatureExtraction_Sumagui\u005cLAZ_Mindoro_Blk28E/pt000092.laz
p931
ssS'2617'
p932
(dp933
S'itemId'
p934
I2617
sS'start_time'
p935
S'Thu Mar 10 11:21:09 2016'
p936
sS'worker_id'
p937
S'0'
p938
sS'output_path'
p939
VE:/FeatureExtractionOutputs/pt000127.tif
p940
sS'end_time'
p941
S'Thu Mar 10 11:21:19 2016'
p942
sS'path'
p943
VE:/FeatureExtractionV4/pipelinev6/inputs/ground/pt000127.laz
p944
ssS'2616'
p945
(dp946
S'itemId'
p947
I2616
sS'start_time'
p948
S'Thu Mar 10 11:20:53 2016'
p949
sS'worker_id'
p950
S'0'
p951
sS'output_path'
p952
VE:/FeatureExtractionOutputs/pt000121.tif
p953
sS'end_time'
p954
S'Thu Mar 10 11:21:03 2016'
p955
sS'path'
p956
VE:/FeatureExtractionV4/pipelinev6/inputs/ground/pt000121.laz
p957
ssS'2615'
p958
(dp959
S'itemId'
p960
I2615
sS'start_time'
p961
S'Thu Mar 10 11:20:37 2016'
p962
sS'worker_id'
p963
S'0'
p964
sS'output_path'
p965
VE:/FeatureExtractionOutputs/pt000120.tif
p966
sS'end_time'
p967
S'Thu Mar 10 11:20:47 2016'
p968
sS'path'
p969
VE:/FeatureExtractionV4/pipelinev6/inputs/ground/pt000120.laz
p970
ssS'2614'
p971
(dp972
S'itemId'
p973
I2614
sS'start_time'
p974
S'Thu Mar 10 11:20:20 2016'
p975
sS'worker_id'
p976
S'0'
p977
sS'output_path'
p978
VE:/FeatureExtractionOutputs/pt000115.tif
p979
sS'end_time'
p980
S'Thu Mar 10 11:20:31 2016'
p981
sS'path'
p982
VE:/FeatureExtractionV4/pipelinev6/inputs/ground/pt000115.laz
p983
ssS'2613'
p984
(dp985
S'itemId'
p986
I2613
sS'start_time'
p987
S'Thu Mar 10 11:20:04 2016'
p988
sS'worker_id'
p989
S'0'
p990
sS'output_path'
p991
VE:/FeatureExtractionOutputs/pt000113.tif
p992
sS'end_time'
p993
S'Thu Mar 10 11:20:15 2016'
p994
sS'path'
p995
VE:/FeatureExtractionV4/pipelinev6/inputs/ground/pt000113.laz
p996
ssS'2612'
p997
(dp998
S'itemId'
p999
I2612
sS'start_time'
p1000
S'Thu Mar 10 11:19:48 2016'
p1001
sS'worker_id'
p1002
S'0'
p1003
sS'output_path'
p1004
VE:/FeatureExtractionOutputs/pt000024.tif
p1005
sS'end_time'
p1006
S'Thu Mar 10 11:19:58 2016'
p1007
sS'path'
p1008
VE:/FeatureExtractionV4/pipelinev6/inputs/ground/pt000024.laz
p1009
ssS'2611'
p1010
(dp1011
S'itemId'
p1012
I2611
sS'start_time'
p1013
S'Thu Mar 10 11:19:33 2016'
p1014
sS'worker_id'
p1015
S'0'
p1016
sS'output_path'
p1017
VE:/FeatureExtractionOutputs/pt000015.tif
p1018
sS'end_time'
p1019
S'Thu Mar 10 11:19:43 2016'
p1020
sS'path'
p1021
VE:/FeatureExtractionV4/pipelinev6/inputs/ground/pt000015.laz
p1022
ssS'2610'
p1023
(dp1024
S'itemId'
p1025
I2610
sS'start_time'
p1026
S'Thu Mar 10 11:19:17 2016'
p1027
sS'worker_id'
p1028
S'0'
p1029
sS'output_path'
p1030
VE:/FeatureExtractionOutputs/pt000012.tif
p1031
sS'end_time'
p1032
S'Thu Mar 10 11:19:27 2016'
p1033
sS'path'
p1034
VE:/FeatureExtractionV4/pipelinev6/inputs/ground/pt000012.laz
p1035
ssS'2736'
p1036
(dp1037
S'itemId'
p1038
I2736
sS'start_time'
p1039
S'Fri Apr 01 11:44:38 2016'
p1040
sS'worker_id'
p1041
S'0'
p1042
sS'output_path'
p1043
VE:/FeatureExtractionOutputs/pt000061.tif
p1044
sS'end_time'
p1045
S'Fri Apr 01 11:44:44 2016'
p1046
sS'path'
p1047
VE:/testinput/pt000061.laz
p1048
sS'error_msg'
p1049
g119
ssS'2619'
p1050
(dp1051
S'itemId'
p1052
I2619
sS'start_time'
p1053
S'Thu Mar 10 14:23:35 2016'
p1054
sS'worker_id'
p1055
S'0'
p1056
sS'output_path'
p1057
VE:/FeatureExtractionOutputs/pt000015.tif
p1058
sS'end_time'
p1059
S'Thu Mar 10 14:45:18 2016'
p1060
sS'path'
p1061
VE:/testinput/pt000015.laz
p1062
ssS'2618'
p1063
(dp1064
S'itemId'
p1065
I2618
sS'start_time'
p1066
S'Thu Mar 10 11:21:25 2016'
p1067
sS'worker_id'
p1068
S'0'
p1069
sS'output_path'
p1070
VE:/FeatureExtractionOutputs/pt000128.tif
p1071
sS'end_time'
p1072
S'Thu Mar 10 11:21:35 2016'
p1073
sS'path'
p1074
VE:/FeatureExtractionV4/pipelinev6/inputs/ground/pt000128.laz
p1075
ssS'2808'
p1076
(dp1077
S'itemId'
p1078
I2808
sS'start_time'
p1079
S'Fri Apr 01 17:59:37 2016'
p1080
sS'worker_id'
p1081
S'3'
p1082
sS'output_path'
p1083
VE:\u005cFeatureExtraction_Agsalin\u005cAgsalin_Outputs/pt000085.tif
p1084
sS'end_time'
p1085
S'Fri Apr 01 18:02:35 2016'
p1086
sS'path'
p1087
VE:\u005cFeatureExtraction_Agsalin\u005cLAZ_Mindoro_Blk28B\u005c/pt000085.laz
p1088
sS'error_msg'
p1089
g119
ssS'2809'
p1090
(dp1091
S'itemId'
p1092
I2809
sS'start_time'
p1093
S'Fri Apr 01 17:59:58 2016'
p1094
sS'worker_id'
p1095
S'0'
p1096
sS'output_path'
p1097
VE:\u005cFeatureExtraction_Agsalin\u005cAgsalin_Outputs/pt000095.tif
p1098
sS'end_time'
p1099
S'Fri Apr 01 18:07:11 2016'
p1100
sS'path'
p1101
VE:\u005cFeatureExtraction_Agsalin\u005cLAZ_Mindoro_Blk28B\u005c/pt000095.laz
p1102
sS'error_msg'
p1103
g119
ssS'2802'
p1104
(dp1105
S'itemId'
p1106
I2802
sS'start_time'
p1107
S'Fri Apr 01 17:49:58 2016'
p1108
sS'worker_id'
p1109
S'1'
p1110
sS'output_path'
p1111
VE:\u005cFeatureExtraction_Agsalin\u005cAgsalin_Outputs/pt000010.tif
p1112
sS'end_time'
p1113
S'Fri Apr 01 18:25:56 2016'
p1114
sS'path'
p1115
VE:\u005cFeatureExtraction_Agsalin\u005cLAZ_Mindoro_Blk28B\u005c/pt000010.laz
p1116
sS'error_msg'
p1117
g119
ssS'2803'
p1118
(dp1119
S'itemId'
p1120
I2803
sS'start_time'
p1121
S'Fri Apr 01 17:49:37 2016'
p1122
sS'worker_id'
p1123
S'0'
p1124
sS'output_path'
p1125
VE:\u005cFeatureExtraction_Agsalin\u005cAgsalin_Outputs/pt000070.tif
p1126
sS'end_time'
p1127
S'Fri Apr 01 17:52:28 2016'
p1128
sS'path'
p1129
VE:\u005cFeatureExtraction_Agsalin\u005cLAZ_Mindoro_Blk28B\u005c/pt000070.laz
p1130
sS'error_msg'
p1131
g119
ssS'2806'
p1132
(dp1133
S'itemId'
p1134
I2806
sS'start_time'
p1135
S'Fri Apr 01 17:52:34 2016'
p1136
sS'worker_id'
p1137
S'0'
p1138
sS'output_path'
p1139
VE:\u005cFeatureExtraction_Agsalin\u005cAgsalin_Outputs/pt000083.tif
p1140
sS'end_time'
p1141
S'Fri Apr 01 17:56:03 2016'
p1142
sS'path'
p1143
VE:\u005cFeatureExtraction_Agsalin\u005cLAZ_Mindoro_Blk28B\u005c/pt000083.laz
p1144
sS'error_msg'
p1145
g119
ssS'2807'
p1146
(dp1147
S'itemId'
p1148
I2807
sS'start_time'
p1149
S'Fri Apr 01 17:56:09 2016'
p1150
sS'worker_id'
p1151
S'0'
p1152
sS'output_path'
p1153
VE:\u005cFeatureExtraction_Agsalin\u005cAgsalin_Outputs/pt000084.tif
p1154
sS'end_time'
p1155
S'Fri Apr 01 17:59:53 2016'
p1156
sS'path'
p1157
VE:\u005cFeatureExtraction_Agsalin\u005cLAZ_Mindoro_Blk28B\u005c/pt000084.laz
p1158
sS'error_msg'
p1159
g119
ssS'2804'
p1160
(dp1161
S'itemId'
p1162
I2804
sS'start_time'
p1163
S'Fri Apr 01 17:50:30 2016'
p1164
sS'worker_id'
p1165
S'2'
p1166
sS'output_path'
p1167
VE:\u005cFeatureExtraction_Agsalin\u005cAgsalin_Outputs/pt000071.tif
p1168
sS'end_time'
p1169
S'Fri Apr 01 17:58:09 2016'
p1170
sS'path'
p1171
VE:\u005cFeatureExtraction_Agsalin\u005cLAZ_Mindoro_Blk28B\u005c/pt000071.laz
p1172
sS'error_msg'
p1173
g119
ssS'2805'
p1174
(dp1175
S'itemId'
p1176
I2805
sS'start_time'
p1177
S'Fri Apr 01 17:50:07 2016'
p1178
sS'worker_id'
p1179
S'3'
p1180
sS'output_path'
p1181
VE:\u005cFeatureExtraction_Agsalin\u005cAgsalin_Outputs/pt000082.tif
p1182
sS'end_time'
p1183
S'Fri Apr 01 17:52:37 2016'
p1184
sS'path'
p1185
VE:\u005cFeatureExtraction_Agsalin\u005cLAZ_Mindoro_Blk28B\u005c/pt000082.laz
p1186
sS'error_msg'
p1187
g119
ssS'2648'
p1188
(dp1189
S'itemId'
p1190
I2648
sS'start_time'
p1191
S'Thu Mar 31 10:42:05 2016'
p1192
sS'worker_id'
p1193
S'2'
p1194
sS'output_path'
p1195
VE:\u005cFeatureExtraction_Sumagui\u005cOutputs_Mindoro_Blk28Es/pt000031.tif
p1196
sS'end_time'
p1197
S'Thu Mar 31 10:44:13 2016'
p1198
sS'path'
p1199
VE:\u005cFeatureExtraction_Sumagui\u005cLAZ_Mindoro_Blk28Es/pt000031.laz
p1200
ssS'2688'
p1201
(dp1202
S'itemId'
p1203
I2688
sS'start_time'
p1204
S'Thu Mar 31 11:29:30 2016'
p1205
sS'worker_id'
p1206
S'2'
p1207
sS'output_path'
p1208
VE:\u005cFeatureExtraction_Sumagui\u005cOutputs_Mindoro_Blk28E/pt000089.tif
p1209
sS'end_time'
p1210
S'Thu Mar 31 11:31:28 2016'
p1211
sS'path'
p1212
VE:\u005cFeatureExtraction_Sumagui\u005cLAZ_Mindoro_Blk28E/pt000089.laz
p1213
ssS'2689'
p1214
(dp1215
S'itemId'
p1216
I2689
sS'start_time'
p1217
S'Thu Mar 31 11:29:46 2016'
p1218
sS'worker_id'
p1219
S'1'
p1220
sS'output_path'
p1221
VE:\u005cFeatureExtraction_Sumagui\u005cOutputs_Mindoro_Blk28E/pt000090.tif
p1222
sS'end_time'
p1223
S'Thu Mar 31 11:33:54 2016'
p1224
sS'path'
p1225
VE:\u005cFeatureExtraction_Sumagui\u005cLAZ_Mindoro_Blk28E/pt000090.laz
p1226
ssS'2684'
p1227
(dp1228
S'itemId'
p1229
I2684
sS'start_time'
p1230
S'Thu Mar 31 11:25:04 2016'
p1231
sS'worker_id'
p1232
S'1'
p1233
sS'output_path'
p1234
VE:\u005cFeatureExtraction_Sumagui\u005cOutputs_Mindoro_Blk28E/pt000054.tif
p1235
sS'end_time'
p1236
S'Thu Mar 31 11:29:17 2016'
p1237
sS'path'
p1238
VE:\u005cFeatureExtraction_Sumagui\u005cLAZ_Mindoro_Blk28E/pt000054.laz
p1239
ssS'2685'
p1240
(dp1241
S'itemId'
p1242
I2685
sS'start_time'
p1243
S'Thu Mar 31 11:24:54 2016'
p1244
sS'worker_id'
p1245
S'3'
p1246
sS'output_path'
p1247
VE:\u005cFeatureExtraction_Sumagui\u005cOutputs_Mindoro_Blk28E/pt000059.tif
p1248
sS'end_time'
p1249
S'Thu Mar 31 11:28:13 2016'
p1250
sS'path'
p1251
VE:\u005cFeatureExtraction_Sumagui\u005cLAZ_Mindoro_Blk28E/pt000059.laz
p1252
ssS'2686'
p1253
(dp1254
S'itemId'
p1255
I2686
sS'start_time'
p1256
S'Thu Mar 31 11:25:19 2016'
p1257
sS'worker_id'
p1258
S'2'
p1259
sS'output_path'
p1260
VE:\u005cFeatureExtraction_Sumagui\u005cOutputs_Mindoro_Blk28E/pt000060.tif
p1261
sS'end_time'
p1262
S'Thu Mar 31 11:27:59 2016'
p1263
sS'path'
p1264
VE:\u005cFeatureExtraction_Sumagui\u005cLAZ_Mindoro_Blk28E/pt000060.laz
p1265
ssS'2687'
p1266
(dp1267
S'itemId'
p1268
I2687
sS'start_time'
p1269
S'Thu Mar 31 11:27:28 2016'
p1270
sS'worker_id'
p1271
S'0'
p1272
sS'output_path'
p1273
VE:\u005cFeatureExtraction_Sumagui\u005cOutputs_Mindoro_Blk28E/pt000078.tif
p1274
sS'end_time'
p1275
S'Thu Mar 31 11:30:32 2016'
p1276
sS'path'
p1277
VE:\u005cFeatureExtraction_Sumagui\u005cLAZ_Mindoro_Blk28E/pt000078.laz
p1278
ssS'2623'
p1279
(dp1280
S'itemId'
p1281
I2623
sS'start_time'
p1282
S'Thu Mar 10 16:28:26 2016'
p1283
sS'worker_id'
p1284
S'1'
p1285
sS'output_path'
p1286
VE:/FeatureExtractionOutputs/pt000015.tif
p1287
sS'end_time'
p1288
S'Thu Mar 10 16:50:37 2016'
p1289
sS'path'
p1290
VE:/testinput/pt000015.laz
p1291
ssS'2683'
p1292
(dp1293
S'itemId'
p1294
I2683
sS'start_time'
p1295
S'Thu Mar 31 11:24:32 2016'
p1296
sS'worker_id'
p1297
S'0'
p1298
sS'output_path'
p1299
VE:\u005cFeatureExtraction_Sumagui\u005cOutputs_Mindoro_Blk28E/pt000053.tif
p1300
sS'end_time'
p1301
S'Thu Mar 31 11:27:23 2016'
p1302
sS'path'
p1303
VE:\u005cFeatureExtraction_Sumagui\u005cLAZ_Mindoro_Blk28E/pt000053.laz
p1304
ssS'2815'
p1305
(dp1306
S'itemId'
p1307
I2815
sS'start_time'
p1308
S'Fri Apr 01 18:12:46 2016'
p1309
sS'worker_id'
p1310
S'0'
p1311
sS'output_path'
p1312
VE:\u005cFeatureExtraction_Agsalin\u005cAgsalin_Outputs/pt000112.tif
p1313
sS'end_time'
p1314
S'Fri Apr 01 18:14:01 2016'
p1315
sS'path'
p1316
VE:\u005cFeatureExtraction_Agsalin\u005cLAZ_Mindoro_Blk28B\u005c/pt000112.laz
p1317
sS'error_msg'
p1318
g119
ssS'2814'
p1319
(dp1320
S'itemId'
p1321
I2814
sS'start_time'
p1322
S'Fri Apr 01 18:09:52 2016'
p1323
sS'worker_id'
p1324
S'3'
p1325
sS'output_path'
p1326
VE:\u005cFeatureExtraction_Agsalin\u005cAgsalin_Outputs/pt000102.tif
p1327
sS'end_time'
p1328
S'Fri Apr 01 18:12:09 2016'
p1329
sS'path'
p1330
VE:\u005cFeatureExtraction_Agsalin\u005cLAZ_Mindoro_Blk28B\u005c/pt000102.laz
p1331
sS'error_msg'
p1332
g119
ssS'2817'
p1333
(dp1334
S'itemId'
p1335
I2817
sS'start_time'
p1336
S'Fri Apr 01 18:16:07 2016'
p1337
sS'worker_id'
p1338
S'0'
p1339
sS'output_path'
p1340
VE:\u005cFeatureExtraction_Agsalin\u005cAgsalin_Outputs/pt000116.tif
p1341
sS'end_time'
p1342
S'Fri Apr 01 18:16:13 2016'
p1343
sS'path'
p1344
VE:\u005cFeatureExtraction_Agsalin\u005cLAZ_Mindoro_Blk28B\u005c/pt000116.laz
p1345
sS'error_msg'
p1346
g119
ssS'2621'
p1347
(dp1348
S'itemId'
p1349
I2621
sS'start_time'
p1350
S'Thu Mar 10 15:08:08 2016'
p1351
sS'worker_id'
p1352
S'0'
p1353
sS'output_path'
p1354
VE:/FeatureExtractionOutputs/pt000015.tif
p1355
sS'end_time'
p1356
S'Thu Mar 10 15:12:39 2016'
p1357
sS'path'
p1358
VE:/testinput/pt000015.laz
p1359
ssS'2626'
p1360
(dp1361
S'itemId'
p1362
I2626
sS'start_time'
p1363
S'Tue Mar 22 15:11:33 2016'
p1364
sS'worker_id'
p1365
S'1'
p1366
sS'output_path'
p1367
VE:/FeatureExtractionOutputs/pt000012.tif
p1368
sS'end_time'
p1369
S'Tue Mar 22 16:11:39 2016'
p1370
sS'path'
p1371
VE:/testinput/pt000012.laz
p1372
ssS'2627'
p1373
(dp1374
S'itemId'
p1375
I2627
sS'start_time'
p1376
S'Tue Mar 22 15:27:29 2016'
p1377
sS'worker_id'
p1378
S'0'
p1379
sS'output_path'
p1380
VE:/FeatureExtractionOutputs/pt000015.tif
p1381
sS'end_time'
p1382
S'Tue Mar 22 15:31:53 2016'
p1383
sS'path'
p1384
VE:/testinput/pt000015.laz
p1385
ssS'2624'
p1386
(dp1387
S'itemId'
p1388
I2624
sS'start_time'
p1389
S'Thu Mar 10 16:55:04 2016'
p1390
sS'worker_id'
p1391
S'0'
p1392
sS'output_path'
p1393
VE:/FeatureExtractionOutputs/pt000015.tif
p1394
sS'end_time'
p1395
S'Thu Mar 10 16:59:46 2016'
p1396
sS'path'
p1397
VE:/testinput/pt000015.laz
p1398
ssS'2625'
p1399
(dp1400
S'itemId'
p1401
I2625
sS'start_time'
p1402
S'Tue Mar 22 15:11:22 2016'
p1403
sS'worker_id'
p1404
S'0'
p1405
sS'output_path'
p1406
VE:/FeatureExtractionOutputs/pt000002.tif
p1407
sS'end_time'
p1408
S'Tue Mar 22 15:27:23 2016'
p1409
sS'path'
p1410
VE:/testinput/pt000002.laz
p1411
ssS'2631'
p1412
(dp1413
S'itemId'
p1414
I2631
sS'start_time'
p1415
S'Thu Mar 31 09:08:52 2016'
p1416
sS'worker_id'
p1417
S'2'
p1418
sS'output_path'
p1419
VE:\u005cFeatureExtraction_Sumagui\u005cOutputs_Mindoro_Blk28Es/pt000029.tif
p1420
sS'end_time'
p1421
S'Thu Mar 31 09:11:55 2016'
p1422
sS'path'
p1423
VE:\u005cFeatureExtraction_Sumagui\u005cLAZ_Mindoro_Blk28Es/pt000029.laz
p1424
ssS'2628'
p1425
(dp1426
S'itemId'
p1427
I2628
sS'start_time'
p1428
S'Tue Mar 22 15:31:59 2016'
p1429
sS'worker_id'
p1430
S'0'
p1431
sS'output_path'
p1432
VE:/FeatureExtractionOutputs/pt000024.tif
p1433
sS'end_time'
p1434
S'Tue Mar 22 15:55:34 2016'
p1435
sS'path'
p1436
VE:/testinput/pt000024.laz
p1437
ssS'2629'
p1438
(dp1439
S'itemId'
p1440
I2629
sS'start_time'
p1441
S'Thu Mar 31 09:08:51 2016'
p1442
sS'worker_id'
p1443
S'1'
p1444
sS'output_path'
p1445
VE:\u005cFeatureExtraction_Sumagui\u005cOutputs_Mindoro_Blk28Es/pt000027.tif
p1446
sS'end_time'
p1447
S'Thu Mar 31 09:09:06 2016'
p1448
sS'path'
p1449
VE:\u005cFeatureExtraction_Sumagui\u005cLAZ_Mindoro_Blk28Es/pt000027.laz
p1450
ssS'2819'
p1451
(dp1452
S'itemId'
p1453
I2819
sS'start_time'
p1454
S'Fri Apr 01 18:17:17 2016'
p1455
sS'worker_id'
p1456
S'2'
p1457
sS'output_path'
p1458
VE:\u005cFeatureExtraction_Agsalin\u005cAgsalin_Outputs/pt000119.tif
p1459
sS'end_time'
p1460
S'Fri Apr 01 18:18:29 2016'
p1461
sS'path'
p1462
VE:\u005cFeatureExtraction_Agsalin\u005cLAZ_Mindoro_Blk28B\u005c/pt000119.laz
p1463
sS'error_msg'
p1464
g119
ssS'2818'
p1465
(dp1466
S'itemId'
p1467
I2818
sS'start_time'
p1468
S'Fri Apr 01 18:16:18 2016'
p1469
sS'worker_id'
p1470
S'0'
p1471
sS'output_path'
p1472
VE:\u005cFeatureExtraction_Agsalin\u005cAgsalin_Outputs/pt000118.tif
p1473
sS'end_time'
p1474
S'Fri Apr 01 18:18:15 2016'
p1475
sS'path'
p1476
VE:\u005cFeatureExtraction_Agsalin\u005cLAZ_Mindoro_Blk28B\u005c/pt000118.laz
p1477
sS'error_msg'
p1478
g119
ssS'2739'
p1479
(dp1480
S'itemId'
p1481
I2739
sS'start_time'
p1482
S'Fri Apr 01 13:55:32 2016'
p1483
sS'worker_id'
p1484
S'0'
p1485
sS'output_path'
p1486
VE:/FeatureExtractionOutputs/pt000061.tif
p1487
sS'end_time'
p1488
S'Fri Apr 01 13:55:48 2016'
p1489
sS'path'
p1490
VE:/testinput/pt000061.laz
p1491
sS'error_msg'
p1492
g119
ssS'2756'
p1493
(dp1494
S'itemId'
p1495
I2756
sS'start_time'
p1496
S'Fri Apr 01 14:38:45 2016'
p1497
sS'worker_id'
p1498
S'0'
p1499
sS'output_path'
p1500
VE:/FeatureExtractionOutputs/pt000069.tif
p1501
sS'end_time'
p1502
S'Fri Apr 01 14:39:55 2016'
p1503
sS'path'
p1504
VE:/testinput/pt000069.laz
p1505
sS'error_msg'
p1506
g119
ssS'2757'
p1507
(dp1508
S'itemId'
p1509
I2757
sS'start_time'
p1510
S'Fri Apr 01 14:59:13 2016'
p1511
sS'worker_id'
p1512
S'0'
p1513
sS'output_path'
p1514
VE:/FeatureExtractionOutputs/pt000061.tif
p1515
sS'end_time'
p1516
S'Fri Apr 01 14:59:28 2016'
p1517
sS'path'
p1518
VE:/testinput/pt000061.laz
p1519
sS'error_msg'
p1520
g119
ssS'2754'
p1521
(dp1522
S'itemId'
p1523
I2754
sS'start_time'
p1524
S'Fri Apr 01 14:38:26 2016'
p1525
sS'worker_id'
p1526
S'0'
p1527
sS'output_path'
p1528
VE:/FeatureExtractionOutputs/pt000061.tif
p1529
sS'end_time'
p1530
S'Fri Apr 01 14:38:32 2016'
p1531
sS'path'
p1532
VE:/testinput/pt000061.laz
p1533
sS'error_msg'
p1534
g119
ssS'2753'
p1535
(dp1536
S'itemId'
p1537
I2753
sS'start_time'
p1538
S'Fri Apr 01 14:28:46 2016'
p1539
sS'worker_id'
p1540
S'0'
p1541
sS'output_path'
p1542
VE:/FeatureExtractionOutputs/pt000069.tif
p1543
sS'end_time'
p1544
S'Fri Apr 01 14:29:58 2016'
p1545
sS'path'
p1546
VE:/testinput/pt000069.laz
p1547
sS'error_msg'
p1548
g119
ssS'2750'
p1549
(dp1550
S'itemId'
p1551
I2750
sS'start_time'
p1552
S'Fri Apr 01 14:13:56 2016'
p1553
sS'worker_id'
p1554
S'0'
p1555
sS'output_path'
p1556
VE:/FeatureExtractionOutputs/pt000069.tif
p1557
sS'end_time'
p1558
S'Fri Apr 01 14:15:05 2016'
p1559
sS'path'
p1560
VE:/testinput/pt000069.laz
p1561
sS'error_msg'
p1562
g119
ssS'2698'
p1563
(dp1564
S'itemId'
p1565
I2698
sS'start_time'
p1566
S'Thu Mar 31 11:40:14 2016'
p1567
sS'worker_id'
p1568
S'0'
p1569
sS'output_path'
p1570
VE:\u005cFeatureExtraction_Sumagui\u005cOutputs_Mindoro_Blk28E/pt000164.tif
p1571
sS'end_time'
p1572
S'Thu Mar 31 11:42:33 2016'
p1573
sS'path'
p1574
VE:\u005cFeatureExtraction_Sumagui\u005cLAZ_Mindoro_Blk28E/pt000164.laz
p1575
ssS'2697'
p1576
(dp1577
S'itemId'
p1578
I2697
sS'start_time'
p1579
S'Thu Mar 31 11:39:52 2016'
p1580
sS'worker_id'
p1581
S'2'
p1582
sS'output_path'
p1583
VE:\u005cFeatureExtraction_Sumagui\u005cOutputs_Mindoro_Blk28E/pt000163.tif
p1584
sS'end_time'
p1585
S'Thu Mar 31 11:41:32 2016'
p1586
sS'path'
p1587
VE:\u005cFeatureExtraction_Sumagui\u005cLAZ_Mindoro_Blk28E/pt000163.laz
p1588
ssS'2696'
p1589
(dp1590
S'itemId'
p1591
I2696
sS'start_time'
p1592
S'Thu Mar 31 11:38:39 2016'
p1593
sS'worker_id'
p1594
S'0'
p1595
sS'output_path'
p1596
VE:\u005cFeatureExtraction_Sumagui\u005cOutputs_Mindoro_Blk28E/pt000142.tif
p1597
sS'end_time'
p1598
S'Thu Mar 31 11:40:08 2016'
p1599
sS'path'
p1600
VE:\u005cFeatureExtraction_Sumagui\u005cLAZ_Mindoro_Blk28E/pt000142.laz
p1601
ssS'2695'
p1602
(dp1603
S'itemId'
p1604
I2695
sS'start_time'
p1605
S'Thu Mar 31 11:36:47 2016'
p1606
sS'worker_id'
p1607
S'2'
p1608
sS'output_path'
p1609
VE:\u005cFeatureExtraction_Sumagui\u005cOutputs_Mindoro_Blk28E/pt000141.tif
p1610
sS'end_time'
p1611
S'Thu Mar 31 11:37:56 2016'
p1612
sS'path'
p1613
VE:\u005cFeatureExtraction_Sumagui\u005cLAZ_Mindoro_Blk28E/pt000141.laz
p1614
ssS'2694'
p1615
(dp1616
S'itemId'
p1617
I2694
sS'start_time'
p1618
S'Thu Mar 31 11:36:40 2016'
p1619
sS'worker_id'
p1620
S'3'
p1621
sS'output_path'
p1622
VE:\u005cFeatureExtraction_Sumagui\u005cOutputs_Mindoro_Blk28E/pt000125.tif
p1623
sS'end_time'
p1624
S'Thu Mar 31 11:38:03 2016'
p1625
sS'path'
p1626
VE:\u005cFeatureExtraction_Sumagui\u005cLAZ_Mindoro_Blk28E/pt000125.laz
p1627
ssS'2693'
p1628
(dp1629
S'itemId'
p1630
I2693
sS'start_time'
p1631
S'Thu Mar 31 11:34:22 2016'
p1632
sS'worker_id'
p1633
S'1'
p1634
sS'output_path'
p1635
VE:\u005cFeatureExtraction_Sumagui\u005cOutputs_Mindoro_Blk28E/pt000124.tif
p1636
sS'end_time'
p1637
S'Thu Mar 31 11:43:05 2016'
p1638
sS'path'
p1639
VE:\u005cFeatureExtraction_Sumagui\u005cLAZ_Mindoro_Blk28E/pt000124.laz
p1640
ssS'2692'
p1641
(dp1642
S'itemId'
p1643
I2692
sS'start_time'
p1644
S'Thu Mar 31 11:33:02 2016'
p1645
sS'worker_id'
p1646
S'3'
p1647
sS'output_path'
p1648
VE:\u005cFeatureExtraction_Sumagui\u005cOutputs_Mindoro_Blk28E/pt000119.tif
p1649
sS'end_time'
p1650
S'Thu Mar 31 11:34:56 2016'
p1651
sS'path'
p1652
VE:\u005cFeatureExtraction_Sumagui\u005cLAZ_Mindoro_Blk28E/pt000119.laz
p1653
ssS'2691'
p1654
(dp1655
S'itemId'
p1656
I2691
sS'start_time'
p1657
S'Thu Mar 31 11:32:56 2016'
p1658
sS'worker_id'
p1659
S'2'
p1660
sS'output_path'
p1661
VE:\u005cFeatureExtraction_Sumagui\u005cOutputs_Mindoro_Blk28E/pt000103.tif
p1662
sS'end_time'
p1663
S'Thu Mar 31 11:35:32 2016'
p1664
sS'path'
p1665
VE:\u005cFeatureExtraction_Sumagui\u005cLAZ_Mindoro_Blk28E/pt000103.laz
p1666
ssS'2759'
p1667
(dp1668
S'itemId'
p1669
I2759
sS'start_time'
p1670
S'Fri Apr 01 14:59:41 2016'
p1671
sS'worker_id'
p1672
S'0'
p1673
sS'output_path'
p1674
VE:/FeatureExtractionOutputs/pt000069.tif
p1675
sS'end_time'
p1676
S'Fri Apr 01 15:00:54 2016'
p1677
sS'path'
p1678
VE:/testinput/pt000069.laz
p1679
sS'error_msg'
p1680
g119
ssS'2735'
p1681
(dp1682
S'itemId'
p1683
I2735
sS'start_time'
p1684
S'Fri Apr 01 11:39:35 2016'
p1685
sS'worker_id'
p1686
S'0'
p1687
sS'output_path'
p1688
VE:/FeatureExtractionOutputs/pt000069.tif
p1689
sS'end_time'
p1690
S'Fri Apr 01 11:40:41 2016'
p1691
sS'path'
p1692
VE:/testinput/pt000069.laz
p1693
sS'error_msg'
p1694
g119
ssS'2609'
p1695
(dp1696
S'itemId'
p1697
I2609
sS'start_time'
p1698
S'Thu Mar 10 11:19:01 2016'
p1699
sS'worker_id'
p1700
S'0'
p1701
sS'output_path'
p1702
VE:/FeatureExtractionOutputs/pt000002.tif
p1703
sS'end_time'
p1704
S'Thu Mar 10 11:19:11 2016'
p1705
sS'path'
p1706
VE:/FeatureExtractionV4/pipelinev6/inputs/ground/pt000002.laz
p1707
ssS'2639'
p1708
(dp1709
S'itemId'
p1710
I2639
sS'start_time'
p1711
S'Thu Mar 31 09:14:17 2016'
p1712
sS'worker_id'
p1713
S'0'
p1714
sS'output_path'
p1715
VE:\u005cFeatureExtraction_Sumagui\u005cOutputs_Mindoro_Blk28Es/pt000037.tif
p1716
sS'end_time'
p1717
S'Thu Mar 31 09:18:27 2016'
p1718
sS'path'
p1719
VE:\u005cFeatureExtraction_Sumagui\u005cLAZ_Mindoro_Blk28Es/pt000037.laz
p1720
ssS'2638'
p1721
(dp1722
S'itemId'
p1723
I2638
sS'start_time'
p1724
S'Thu Mar 31 09:13:59 2016'
p1725
sS'worker_id'
p1726
S'0'
p1727
sS'output_path'
p1728
VE:\u005cFeatureExtraction_Sumagui\u005cOutputs_Mindoro_Blk28Es/pt000036.tif
p1729
sS'end_time'
p1730
S'Thu Mar 31 09:14:11 2016'
p1731
sS'path'
p1732
VE:\u005cFeatureExtraction_Sumagui\u005cLAZ_Mindoro_Blk28Es/pt000036.laz
p1733
ssS'2732'
p1734
(dp1735
S'itemId'
p1736
I2732
sS'start_time'
p1737
S'Fri Apr 01 11:36:42 2016'
p1738
sS'worker_id'
p1739
S'0'
p1740
sS'output_path'
p1741
VE:/FeatureExtractionOutputs/pt000069.tif
p1742
sS'end_time'
p1743
S'Fri Apr 01 11:37:48 2016'
p1744
sS'path'
p1745
VE:/testinput/pt000069.laz
p1746
sS'error_msg'
p1747
g119
ssS'2733'
p1748
(dp1749
S'itemId'
p1750
I2733
sS'start_time'
p1751
S'Fri Apr 01 11:39:17 2016'
p1752
sS'worker_id'
p1753
S'0'
p1754
sS'output_path'
p1755
VE:/FeatureExtractionOutputs/pt000061.tif
p1756
sS'end_time'
p1757
S'Fri Apr 01 11:39:23 2016'
p1758
sS'path'
p1759
VE:/testinput/pt000061.laz
p1760
sS'error_msg'
p1761
g119
ssS'2635'
p1762
(dp1763
S'itemId'
p1764
I2635
sS'start_time'
p1765
S'Thu Mar 31 09:11:45 2016'
p1766
sS'worker_id'
p1767
S'0'
p1768
sS'output_path'
p1769
VE:\u005cFeatureExtraction_Sumagui\u005cOutputs_Mindoro_Blk28Es/pt000033.tif
p1770
sS'end_time'
p1771
S'Thu Mar 31 09:13:53 2016'
p1772
sS'path'
p1773
VE:\u005cFeatureExtraction_Sumagui\u005cLAZ_Mindoro_Blk28Es/pt000033.laz
p1774
ssS'2634'
p1775
(dp1776
S'itemId'
p1777
I2634
sS'start_time'
p1778
S'Thu Mar 31 09:10:38 2016'
p1779
sS'worker_id'
p1780
S'0'
p1781
sS'output_path'
p1782
VE:\u005cFeatureExtraction_Sumagui\u005cOutputs_Mindoro_Blk28Es/pt000032.tif
p1783
sS'end_time'
p1784
S'Thu Mar 31 09:11:39 2016'
p1785
sS'path'
p1786
VE:\u005cFeatureExtraction_Sumagui\u005cLAZ_Mindoro_Blk28Es/pt000032.laz
p1787
ssS'2637'
p1788
(dp1789
S'itemId'
p1790
I2637
sS'start_time'
p1791
S'Thu Mar 31 09:13:42 2016'
p1792
sS'worker_id'
p1793
S'3'
p1794
sS'output_path'
p1795
VE:\u005cFeatureExtraction_Sumagui\u005cOutputs_Mindoro_Blk28Es/pt000035.tif
p1796
sS'end_time'
p1797
S'Thu Mar 31 09:16:21 2016'
p1798
sS'path'
p1799
VE:\u005cFeatureExtraction_Sumagui\u005cLAZ_Mindoro_Blk28Es/pt000035.laz
p1800
ssS'2636'
p1801
(dp1802
S'itemId'
p1803
I2636
sS'start_time'
p1804
S'Thu Mar 31 09:13:28 2016'
p1805
sS'worker_id'
p1806
S'2'
p1807
sS'output_path'
p1808
VE:\u005cFeatureExtraction_Sumagui\u005cOutputs_Mindoro_Blk28Es/pt000034.tif
p1809
sS'end_time'
p1810
S'Thu Mar 31 09:16:00 2016'
p1811
sS'path'
p1812
VE:\u005cFeatureExtraction_Sumagui\u005cLAZ_Mindoro_Blk28Es/pt000034.laz
p1813
ssS'2738'
p1814
(dp1815
S'itemId'
p1816
I2738
sS'start_time'
p1817
S'Fri Apr 01 11:44:56 2016'
p1818
sS'worker_id'
p1819
S'0'
p1820
sS'output_path'
p1821
VE:/FeatureExtractionOutputs/pt000069.tif
p1822
sS'end_time'
p1823
S'Fri Apr 01 11:46:06 2016'
p1824
sS'path'
p1825
VE:/testinput/pt000069.laz
p1826
sS'error_msg'
p1827
g119
ssS'2630'
p1828
(dp1829
S'itemId'
p1830
I2630
sS'start_time'
p1831
S'Thu Mar 31 09:08:49 2016'
p1832
sS'worker_id'
p1833
S'3'
p1834
sS'output_path'
p1835
VE:\u005cFeatureExtraction_Sumagui\u005cOutputs_Mindoro_Blk28Es/pt000028.tif
p1836
sS'end_time'
p1837
S'Thu Mar 31 09:11:44 2016'
p1838
sS'path'
p1839
VE:\u005cFeatureExtraction_Sumagui\u005cLAZ_Mindoro_Blk28Es/pt000028.laz
p1840
ssS'2632'
p1841
(dp1842
S'itemId'
p1843
I2632
sS'start_time'
p1844
S'Thu Mar 31 09:08:43 2016'
p1845
sS'worker_id'
p1846
S'0'
p1847
sS'output_path'
p1848
VE:\u005cFeatureExtraction_Sumagui\u005cOutputs_Mindoro_Blk28Es/pt000030.tif
p1849
sS'end_time'
p1850
S'Thu Mar 31 09:10:32 2016'
p1851
sS'path'
p1852
VE:\u005cFeatureExtraction_Sumagui\u005cLAZ_Mindoro_Blk28Es/pt000030.laz
p1853
ssS'2816'
p1854
(dp1855
S'itemId'
p1856
I2816
sS'start_time'
p1857
S'Fri Apr 01 18:14:07 2016'
p1858
sS'worker_id'
p1859
S'0'
p1860
sS'output_path'
p1861
VE:\u005cFeatureExtraction_Agsalin\u005cAgsalin_Outputs/pt000113.tif
p1862
sS'end_time'
p1863
S'Fri Apr 01 18:16:01 2016'
p1864
sS'path'
p1865
VE:\u005cFeatureExtraction_Agsalin\u005cLAZ_Mindoro_Blk28B\u005c/pt000113.laz
p1866
sS'error_msg'
p1867
g119
ssS'2811'
p1868
(dp1869
S'itemId'
p1870
I2811
sS'start_time'
p1871
S'Fri Apr 01 18:07:17 2016'
p1872
sS'worker_id'
p1873
S'0'
p1874
sS'output_path'
p1875
VE:\u005cFeatureExtraction_Agsalin\u005cAgsalin_Outputs/pt000097.tif
p1876
sS'end_time'
p1877
S'Fri Apr 01 18:09:34 2016'
p1878
sS'path'
p1879
VE:\u005cFeatureExtraction_Agsalin\u005cLAZ_Mindoro_Blk28B\u005c/pt000097.laz
p1880
sS'error_msg'
p1881
g119
ssS'2810'
p1882
(dp1883
S'itemId'
p1884
I2810
sS'start_time'
p1885
S'Fri Apr 01 18:00:41 2016'
p1886
sS'worker_id'
p1887
S'2'
p1888
sS'output_path'
p1889
VE:\u005cFeatureExtraction_Agsalin\u005cAgsalin_Outputs/pt000096.tif
p1890
sS'end_time'
p1891
S'Fri Apr 01 18:04:49 2016'
p1892
sS'path'
p1893
VE:\u005cFeatureExtraction_Agsalin\u005cLAZ_Mindoro_Blk28B\u005c/pt000096.laz
p1894
sS'error_msg'
p1895
g119
ssS'2813'
p1896
(dp1897
S'itemId'
p1898
I2813
sS'start_time'
p1899
S'Fri Apr 01 18:09:40 2016'
p1900
sS'worker_id'
p1901
S'0'
p1902
sS'output_path'
p1903
VE:\u005cFeatureExtraction_Agsalin\u005cAgsalin_Outputs/pt000101.tif
p1904
sS'end_time'
p1905
S'Fri Apr 01 18:12:40 2016'
p1906
sS'path'
p1907
VE:\u005cFeatureExtraction_Agsalin\u005cLAZ_Mindoro_Blk28B\u005c/pt000101.laz
p1908
sS'error_msg'
p1909
g119
ssS'2730'
p1910
(dp1911
S'itemId'
p1912
I2730
sS'start_time'
p1913
S'Fri Apr 01 11:36:22 2016'
p1914
sS'worker_id'
p1915
S'0'
p1916
sS'output_path'
p1917
VE:/FeatureExtractionOutputs/pt000061.tif
p1918
sS'end_time'
p1919
S'Fri Apr 01 11:36:30 2016'
p1920
sS'path'
p1921
VE:/testinput/pt000061.laz
p1922
sS'error_msg'
p1923
g119
ssS'2812'
p1924
(dp1925
S'itemId'
p1926
I2812
sS'start_time'
p1927
S'Fri Apr 01 18:07:38 2016'
p1928
sS'worker_id'
p1929
S'2'
p1930
sS'output_path'
p1931
VE:\u005cFeatureExtraction_Agsalin\u005cAgsalin_Outputs/pt000100.tif
p1932
sS'end_time'
p1933
S'Fri Apr 01 18:13:33 2016'
p1934
sS'path'
p1935
VE:\u005cFeatureExtraction_Agsalin\u005cLAZ_Mindoro_Blk28B\u005c/pt000100.laz
p1936
sS'error_msg'
p1937
g119
ssS'2741'
p1938
(dp1939
S'itemId'
p1940
I2741
sS'start_time'
p1941
S'Fri Apr 01 13:56:02 2016'
p1942
sS'worker_id'
p1943
S'0'
p1944
sS'output_path'
p1945
VE:/FeatureExtractionOutputs/pt000069.tif
p1946
sS'end_time'
p1947
S'Fri Apr 01 13:57:11 2016'
p1948
sS'path'
p1949
VE:/testinput/pt000069.laz
p1950
sS'error_msg'
p1951
g119
ssS'2742'
p1952
(dp1953
S'itemId'
p1954
I2742
sS'start_time'
p1955
S'Fri Apr 01 14:06:14 2016'
p1956
sS'worker_id'
p1957
S'0'
p1958
sS'output_path'
p1959
VE:/FeatureExtractionOutputs/pt000061.tif
p1960
sS'end_time'
p1961
S'Fri Apr 01 14:06:20 2016'
p1962
sS'path'
p1963
VE:/testinput/pt000061.laz
p1964
sS'error_msg'
p1965
g119
ssS'2745'
p1966
(dp1967
S'itemId'
p1968
I2745
sS'start_time'
p1969
S'Fri Apr 01 14:11:16 2016'
p1970
sS'worker_id'
p1971
S'0'
p1972
sS'output_path'
p1973
VE:/FeatureExtractionOutputs/pt000061.tif
p1974
sS'end_time'
p1975
S'Fri Apr 01 14:11:22 2016'
p1976
sS'path'
p1977
VE:/testinput/pt000061.laz
p1978
sS'error_msg'
p1979
g119
ssS'2744'
p1980
(dp1981
S'itemId'
p1982
I2744
sS'start_time'
p1983
S'Fri Apr 01 14:06:32 2016'
p1984
sS'worker_id'
p1985
S'0'
p1986
sS'output_path'
p1987
VE:/FeatureExtractionOutputs/pt000069.tif
p1988
sS'end_time'
p1989
S'Fri Apr 01 14:07:40 2016'
p1990
sS'path'
p1991
VE:/testinput/pt000069.laz
p1992
sS'error_msg'
p1993
g119
ssS'2747'
p1994
(dp1995
S'itemId'
p1996
I2747
sS'start_time'
p1997
S'Fri Apr 01 14:11:35 2016'
p1998
sS'worker_id'
p1999
S'0'
p2000
sS'output_path'
p2001
VE:/FeatureExtractionOutputs/pt000069.tif
p2002
sS'end_time'
p2003
S'Fri Apr 01 14:12:43 2016'
p2004
sS'path'
p2005
VE:/testinput/pt000069.laz
p2006
sS'error_msg'
p2007
g119
ssS'2748'
p2008
(dp2009
S'itemId'
p2010
I2748
sS'start_time'
p2011
S'Fri Apr 01 14:13:37 2016'
p2012
sS'worker_id'
p2013
S'0'
p2014
sS'output_path'
p2015
VE:/FeatureExtractionOutputs/pt000061.tif
p2016
sS'end_time'
p2017
S'Fri Apr 01 14:13:43 2016'
p2018
sS'path'
p2019
VE:/testinput/pt000061.laz
p2020
sS'error_msg'
p2021
g119
ssS'2727'
p2022
(dp2023
S'itemId'
p2024
I2727
sS'start_time'
p2025
S'Fri Apr 01 11:29:44 2016'
p2026
sS'worker_id'
p2027
S'0'
p2028
sS'output_path'
p2029
VE:/FeatureExtractionOutputs/pt000061.tif
p2030
sS'end_time'
p2031
S'Fri Apr 01 11:29:50 2016'
p2032
sS'path'
p2033
VE:/testinput/pt000061.laz
p2034
sS'error_msg'
p2035
g119
ssS'2649'
p2036
(dp2037
S'itemId'
p2038
I2649
sS'start_time'
p2039
S'Thu Mar 31 11:13:47 2016'
p2040
sS'worker_id'
p2041
S'2'
p2042
sS'output_path'
p2043
VE:\u005cFeatureExtraction_Sumagui\u005cOutputs_Mindoro_Blk28E/pt000053.tif
p2044
sS'end_time'
p2045
S'Thu Mar 31 11:16:22 2016'
p2046
sS'path'
p2047
VE:\u005cFeatureExtraction_Sumagui\u005cLAZ_Mindoro_Blk28E/pt000053.laz
p2048
ssS'2724'
p2049
(dp2050
S'itemId'
p2051
I2724
sS'start_time'
p2052
S'Fri Apr 01 10:48:45 2016'
p2053
sS'worker_id'
p2054
S'0'
p2055
sS'output_path'
p2056
VE:/FeatureExtractionOutputs/pt000061.tif
p2057
sS'end_time'
p2058
S'Fri Apr 01 10:48:51 2016'
p2059
sS'path'
p2060
VE:/testinput/pt000061.laz
p2061
sS'error_msg'
p2062
g119
ssS'2640'
p2063
(dp2064
S'itemId'
p2065
I2640
sS'start_time'
p2066
S'Thu Mar 31 09:16:25 2016'
p2067
sS'worker_id'
p2068
S'2'
p2069
sS'output_path'
p2070
VE:\u005cFeatureExtraction_Sumagui\u005cOutputs_Mindoro_Blk28Es/pt000038.tif
p2071
sS'end_time'
p2072
S'Thu Mar 31 09:16:51 2016'
p2073
sS'path'
p2074
VE:\u005cFeatureExtraction_Sumagui\u005cLAZ_Mindoro_Blk28Es/pt000038.laz
p2075
ssS'2641'
p2076
(dp2077
S'itemId'
p2078
I2641
sS'start_time'
p2079
S'Thu Mar 31 09:18:14 2016'
p2080
sS'worker_id'
p2081
S'2'
p2082
sS'output_path'
p2083
VE:\u005cFeatureExtraction_Sumagui\u005cOutputs_Mindoro_Blk28Es/pt000039.tif
p2084
sS'end_time'
p2085
S'Thu Mar 31 09:28:05 2016'
p2086
sS'path'
p2087
VE:\u005cFeatureExtraction_Sumagui\u005cLAZ_Mindoro_Blk28Es/pt000039.laz
p2088
ssS'2642'
p2089
(dp2090
S'itemId'
p2091
I2642
sS'start_time'
p2092
S'Thu Mar 31 09:18:28 2016'
p2093
sS'worker_id'
p2094
S'3'
p2095
sS'output_path'
p2096
VE:\u005cFeatureExtraction_Sumagui\u005cOutputs_Mindoro_Blk28Es/pt000040.tif
p2097
sS'end_time'
p2098
S'Thu Mar 31 09:22:46 2016'
p2099
sS'path'
p2100
VE:\u005cFeatureExtraction_Sumagui\u005cLAZ_Mindoro_Blk28Es/pt000040.laz
p2101
ssS'2643'
p2102
(dp2103
S'itemId'
p2104
I2643
sS'start_time'
p2105
S'Thu Mar 31 09:18:33 2016'
p2106
sS'worker_id'
p2107
S'0'
p2108
sS'output_path'
p2109
VE:\u005cFeatureExtraction_Sumagui\u005cOutputs_Mindoro_Blk28Es/pt000051.tif
p2110
sS'end_time'
p2111
S'Thu Mar 31 09:19:46 2016'
p2112
sS'path'
p2113
VE:\u005cFeatureExtraction_Sumagui\u005cLAZ_Mindoro_Blk28Es/pt000051.laz
p2114
ssS'2644'
p2115
(dp2116
S'itemId'
p2117
I2644
sS'start_time'
p2118
S'Thu Mar 31 09:19:52 2016'
p2119
sS'worker_id'
p2120
S'0'
p2121
sS'output_path'
p2122
VE:\u005cFeatureExtraction_Sumagui\u005cOutputs_Mindoro_Blk28Es/pt000058.tif
p2123
sS'end_time'
p2124
S'Thu Mar 31 09:20:39 2016'
p2125
sS'path'
p2126
VE:\u005cFeatureExtraction_Sumagui\u005cLAZ_Mindoro_Blk28Es/pt000058.laz
p2127
ssS'2645'
p2128
(dp2129
S'itemId'
p2130
I2645
sS'start_time'
p2131
S'Thu Mar 31 09:20:45 2016'
p2132
sS'worker_id'
p2133
S'0'
p2134
sS'output_path'
p2135
VE:\u005cFeatureExtraction_Sumagui\u005cOutputs_Mindoro_Blk28Es/pt000061.tif
p2136
sS'end_time'
p2137
S'Thu Mar 31 09:20:51 2016'
p2138
sS'path'
p2139
VE:\u005cFeatureExtraction_Sumagui\u005cLAZ_Mindoro_Blk28Es/pt000061.laz
p2140
ssS'2729'
p2141
(dp2142
S'itemId'
p2143
I2729
sS'start_time'
p2144
S'Fri Apr 01 11:30:07 2016'
p2145
sS'worker_id'
p2146
S'0'
p2147
sS'output_path'
p2148
VE:/FeatureExtractionOutputs/pt000069.tif
p2149
sS'end_time'
p2150
S'Fri Apr 01 11:31:19 2016'
p2151
sS'path'
p2152
VE:/testinput/pt000069.laz
p2153
sS'error_msg'
p2154
g119
ss.