(dp0
S'2562'
p1
(dp2
S'itemId'
p3
I2562
sS'start_time'
p4
S'Tue Mar 08 14:03:27 2016'
p5
sS'worker_id'
p6
S'0'
p7
sS'output_path'
p8
VE:/FeatureExtractionOutputs/pt000024.tif
p9
sS'end_time'
p10
S'Tue Mar 08 14:03:40 2016'
p11
sS'path'
p12
VE:/FeatureExtractionV4/pipelinev6/inputs/ground/pt000024.laz
p13
ssS'2543'
p14
(dp15
S'itemId'
p16
I2543
sS'start_time'
p17
S'Tue Mar 08 13:57:27 2016'
p18
sS'worker_id'
p19
S'0'
p20
sS'output_path'
p21
VE:/FeatureExtractionOutputs/pt000113.tif
p22
sS'end_time'
p23
S'Tue Mar 08 13:57:40 2016'
p24
sS'path'
p25
VE:/FeatureExtractionV4/pipelinev6/inputs/ground/pt000113.laz
p26
ssS'2542'
p27
(dp28
S'itemId'
p29
I2542
sS'start_time'
p30
S'Tue Mar 08 13:57:08 2016'
p31
sS'worker_id'
p32
S'0'
p33
sS'output_path'
p34
VE:/FeatureExtractionOutputs/pt000024.tif
p35
sS'end_time'
p36
S'Tue Mar 08 13:57:21 2016'
p37
sS'path'
p38
VE:/FeatureExtractionV4/pipelinev6/inputs/ground/pt000024.laz
p39
ssS'2541'
p40
(dp41
S'itemId'
p42
I2541
sS'start_time'
p43
S'Tue Mar 08 13:56:49 2016'
p44
sS'worker_id'
p45
S'0'
p46
sS'output_path'
p47
VE:/FeatureExtractionOutputs/pt000015.tif
p48
sS'end_time'
p49
S'Tue Mar 08 13:57:02 2016'
p50
sS'path'
p51
VE:/FeatureExtractionV4/pipelinev6/inputs/ground/pt000015.laz
p52
ssS'2540'
p53
(dp54
S'itemId'
p55
I2540
sS'start_time'
p56
S'Tue Mar 08 13:56:30 2016'
p57
sS'worker_id'
p58
S'0'
p59
sS'output_path'
p60
VE:/FeatureExtractionOutputs/pt000012.tif
p61
sS'end_time'
p62
S'Tue Mar 08 13:56:43 2016'
p63
sS'path'
p64
VE:/FeatureExtractionV4/pipelinev6/inputs/ground/pt000012.laz
p65
ssS'2547'
p66
(dp67
S'itemId'
p68
I2547
sS'start_time'
p69
S'Tue Mar 08 13:58:43 2016'
p70
sS'worker_id'
p71
S'0'
p72
sS'output_path'
p73
VE:/FeatureExtractionOutputs/pt000127.tif
p74
sS'end_time'
p75
S'Tue Mar 08 13:58:56 2016'
p76
sS'path'
p77
VE:/FeatureExtractionV4/pipelinev6/inputs/ground/pt000127.laz
p78
ssS'2546'
p79
(dp80
S'itemId'
p81
I2546
sS'start_time'
p82
S'Tue Mar 08 13:58:24 2016'
p83
sS'worker_id'
p84
S'0'
p85
sS'output_path'
p86
VE:/FeatureExtractionOutputs/pt000121.tif
p87
sS'end_time'
p88
S'Tue Mar 08 13:58:37 2016'
p89
sS'path'
p90
VE:/FeatureExtractionV4/pipelinev6/inputs/ground/pt000121.laz
p91
ssS'2545'
p92
(dp93
S'itemId'
p94
I2545
sS'start_time'
p95
S'Tue Mar 08 13:58:05 2016'
p96
sS'worker_id'
p97
S'0'
p98
sS'output_path'
p99
VE:/FeatureExtractionOutputs/pt000120.tif
p100
sS'end_time'
p101
S'Tue Mar 08 13:58:18 2016'
p102
sS'path'
p103
VE:/FeatureExtractionV4/pipelinev6/inputs/ground/pt000120.laz
p104
ssS'2544'
p105
(dp106
S'itemId'
p107
I2544
sS'start_time'
p108
S'Tue Mar 08 13:57:46 2016'
p109
sS'worker_id'
p110
S'0'
p111
sS'output_path'
p112
VE:/FeatureExtractionOutputs/pt000115.tif
p113
sS'end_time'
p114
S'Tue Mar 08 13:57:59 2016'
p115
sS'path'
p116
VE:/FeatureExtractionV4/pipelinev6/inputs/ground/pt000115.laz
p117
ssS'2561'
p118
(dp119
S'itemId'
p120
I2561
sS'start_time'
p121
S'Tue Mar 08 14:03:08 2016'
p122
sS'worker_id'
p123
S'0'
p124
sS'output_path'
p125
VE:/FeatureExtractionOutputs/pt000015.tif
p126
sS'end_time'
p127
S'Tue Mar 08 14:03:21 2016'
p128
sS'path'
p129
VE:/FeatureExtractionV4/pipelinev6/inputs/ground/pt000015.laz
p130
ssS'2560'
p131
(dp132
S'itemId'
p133
I2560
sS'start_time'
p134
S'Tue Mar 08 14:02:49 2016'
p135
sS'worker_id'
p136
S'0'
p137
sS'output_path'
p138
VE:/FeatureExtractionOutputs/pt000012.tif
p139
sS'end_time'
p140
S'Tue Mar 08 14:03:02 2016'
p141
sS'path'
p142
VE:/FeatureExtractionV4/pipelinev6/inputs/ground/pt000012.laz
p143
ssS'2549'
p144
(dp145
S'itemId'
p146
I2549
sS'start_time'
p147
S'Tue Mar 08 13:59:21 2016'
p148
sS'worker_id'
p149
S'0'
p150
sS'output_path'
p151
VE:/FeatureExtractionOutputs/pt000002.tif
p152
sS'end_time'
p153
S'Tue Mar 08 13:59:34 2016'
p154
sS'path'
p155
VE:/FeatureExtractionV4/pipelinev6/inputs/ground/pt000002.laz
p156
ssS'2548'
p157
(dp158
S'itemId'
p159
I2548
sS'start_time'
p160
S'Tue Mar 08 13:59:02 2016'
p161
sS'worker_id'
p162
S'0'
p163
sS'output_path'
p164
VE:/FeatureExtractionOutputs/pt000128.tif
p165
sS'end_time'
p166
S'Tue Mar 08 13:59:15 2016'
p167
sS'path'
p168
VE:/FeatureExtractionV4/pipelinev6/inputs/ground/pt000128.laz
p169
ssS'2565'
p170
(dp171
S'itemId'
p172
I2565
sS'start_time'
p173
S'Tue Mar 08 14:04:23 2016'
p174
sS'worker_id'
p175
S'0'
p176
sS'output_path'
p177
VE:/FeatureExtractionOutputs/pt000120.tif
p178
sS'end_time'
p179
S'Tue Mar 08 14:04:37 2016'
p180
sS'path'
p181
VE:/FeatureExtractionV4/pipelinev6/inputs/ground/pt000120.laz
p182
ssS'2564'
p183
(dp184
S'itemId'
p185
I2564
sS'start_time'
p186
S'Tue Mar 08 14:04:05 2016'
p187
sS'worker_id'
p188
S'0'
p189
sS'output_path'
p190
VE:/FeatureExtractionOutputs/pt000115.tif
p191
sS'end_time'
p192
S'Tue Mar 08 14:04:18 2016'
p193
sS'path'
p194
VE:/FeatureExtractionV4/pipelinev6/inputs/ground/pt000115.laz
p195
ssS'2567'
p196
(dp197
S'itemId'
p198
I2567
sS'start_time'
p199
S'Tue Mar 08 14:05:01 2016'
p200
sS'worker_id'
p201
S'0'
p202
sS'output_path'
p203
VE:/FeatureExtractionOutputs/pt000127.tif
p204
sS'end_time'
p205
S'Tue Mar 08 14:05:14 2016'
p206
sS'path'
p207
VE:/FeatureExtractionV4/pipelinev6/inputs/ground/pt000127.laz
p208
ssS'2566'
p209
(dp210
S'itemId'
p211
I2566
sS'start_time'
p212
S'Tue Mar 08 14:04:42 2016'
p213
sS'worker_id'
p214
S'0'
p215
sS'output_path'
p216
VE:/FeatureExtractionOutputs/pt000121.tif
p217
sS'end_time'
p218
S'Tue Mar 08 14:04:55 2016'
p219
sS'path'
p220
VE:/FeatureExtractionV4/pipelinev6/inputs/ground/pt000121.laz
p221
ssS'2569'
p222
(dp223
S'itemId'
p224
I2569
sS'start_time'
p225
S'Tue Mar 08 14:05:39 2016'
p226
sS'worker_id'
p227
S'0'
p228
sS'output_path'
p229
VE:/FeatureExtractionOutputs/pt000002.tif
p230
sS'end_time'
p231
S'Tue Mar 08 14:05:52 2016'
p232
sS'path'
p233
VE:/FeatureExtractionV4/pipelinev6/inputs/ground/pt000002.laz
p234
ssS'2568'
p235
(dp236
S'itemId'
p237
I2568
sS'start_time'
p238
S'Tue Mar 08 14:05:20 2016'
p239
sS'worker_id'
p240
S'0'
p241
sS'output_path'
p242
VE:/FeatureExtractionOutputs/pt000128.tif
p243
sS'end_time'
p244
S'Tue Mar 08 14:05:33 2016'
p245
sS'path'
p246
VE:/FeatureExtractionV4/pipelinev6/inputs/ground/pt000128.laz
p247
ssS'2550'
p248
(dp249
S'itemId'
p250
I2550
sS'start_time'
p251
S'Tue Mar 08 13:59:40 2016'
p252
sS'worker_id'
p253
S'0'
p254
sS'output_path'
p255
VE:/FeatureExtractionOutputs/pt000012.tif
p256
sS'end_time'
p257
S'Tue Mar 08 13:59:53 2016'
p258
sS'path'
p259
VE:/FeatureExtractionV4/pipelinev6/inputs/ground/pt000012.laz
p260
ssS'2551'
p261
(dp262
S'itemId'
p263
I2551
sS'start_time'
p264
S'Tue Mar 08 13:59:59 2016'
p265
sS'worker_id'
p266
S'0'
p267
sS'output_path'
p268
VE:/FeatureExtractionOutputs/pt000015.tif
p269
sS'end_time'
p270
S'Tue Mar 08 14:00:12 2016'
p271
sS'path'
p272
VE:/FeatureExtractionV4/pipelinev6/inputs/ground/pt000015.laz
p273
ssS'2552'
p274
(dp275
S'itemId'
p276
I2552
sS'start_time'
p277
S'Tue Mar 08 14:00:18 2016'
p278
sS'worker_id'
p279
S'0'
p280
sS'output_path'
p281
VE:/FeatureExtractionOutputs/pt000024.tif
p282
sS'end_time'
p283
S'Tue Mar 08 14:00:31 2016'
p284
sS'path'
p285
VE:/FeatureExtractionV4/pipelinev6/inputs/ground/pt000024.laz
p286
ssS'2553'
p287
(dp288
S'itemId'
p289
I2553
sS'start_time'
p290
S'Tue Mar 08 14:00:37 2016'
p291
sS'worker_id'
p292
S'0'
p293
sS'output_path'
p294
VE:/FeatureExtractionOutputs/pt000113.tif
p295
sS'end_time'
p296
S'Tue Mar 08 14:00:50 2016'
p297
sS'path'
p298
VE:/FeatureExtractionV4/pipelinev6/inputs/ground/pt000113.laz
p299
ssS'2554'
p300
(dp301
S'itemId'
p302
I2554
sS'start_time'
p303
S'Tue Mar 08 14:00:56 2016'
p304
sS'worker_id'
p305
S'0'
p306
sS'output_path'
p307
VE:/FeatureExtractionOutputs/pt000115.tif
p308
sS'end_time'
p309
S'Tue Mar 08 14:01:09 2016'
p310
sS'path'
p311
VE:/FeatureExtractionV4/pipelinev6/inputs/ground/pt000115.laz
p312
ssS'2555'
p313
(dp314
S'itemId'
p315
I2555
sS'start_time'
p316
S'Tue Mar 08 14:01:14 2016'
p317
sS'worker_id'
p318
S'0'
p319
sS'output_path'
p320
VE:/FeatureExtractionOutputs/pt000120.tif
p321
sS'end_time'
p322
S'Tue Mar 08 14:01:27 2016'
p323
sS'path'
p324
VE:/FeatureExtractionV4/pipelinev6/inputs/ground/pt000120.laz
p325
ssS'2556'
p326
(dp327
S'itemId'
p328
I2556
sS'start_time'
p329
S'Tue Mar 08 14:01:33 2016'
p330
sS'worker_id'
p331
S'0'
p332
sS'output_path'
p333
VE:/FeatureExtractionOutputs/pt000121.tif
p334
sS'end_time'
p335
S'Tue Mar 08 14:01:46 2016'
p336
sS'path'
p337
VE:/FeatureExtractionV4/pipelinev6/inputs/ground/pt000121.laz
p338
ssS'2557'
p339
(dp340
S'itemId'
p341
I2557
sS'start_time'
p342
S'Tue Mar 08 14:01:52 2016'
p343
sS'worker_id'
p344
S'0'
p345
sS'output_path'
p346
VE:/FeatureExtractionOutputs/pt000127.tif
p347
sS'end_time'
p348
S'Tue Mar 08 14:02:05 2016'
p349
sS'path'
p350
VE:/FeatureExtractionV4/pipelinev6/inputs/ground/pt000127.laz
p351
ssS'2558'
p352
(dp353
S'itemId'
p354
I2558
sS'start_time'
p355
S'Tue Mar 08 14:02:11 2016'
p356
sS'worker_id'
p357
S'0'
p358
sS'output_path'
p359
VE:/FeatureExtractionOutputs/pt000128.tif
p360
sS'end_time'
p361
S'Tue Mar 08 14:02:24 2016'
p362
sS'path'
p363
VE:/FeatureExtractionV4/pipelinev6/inputs/ground/pt000128.laz
p364
ssS'2559'
p365
(dp366
S'itemId'
p367
I2559
sS'start_time'
p368
S'Tue Mar 08 14:02:30 2016'
p369
sS'worker_id'
p370
S'0'
p371
sS'output_path'
p372
VE:/FeatureExtractionOutputs/pt000002.tif
p373
sS'end_time'
p374
S'Tue Mar 08 14:02:43 2016'
p375
sS'path'
p376
VE:/FeatureExtractionV4/pipelinev6/inputs/ground/pt000002.laz
p377
ssS'2574'
p378
(dp379
S'itemId'
p380
I2574
sS'start_time'
p381
S'Tue Mar 08 14:07:13 2016'
p382
sS'worker_id'
p383
S'0'
p384
sS'output_path'
p385
VE:/FeatureExtractionOutputs/pt000115.tif
p386
sS'end_time'
p387
S'Tue Mar 08 14:07:27 2016'
p388
sS'path'
p389
VE:/FeatureExtractionV4/pipelinev6/inputs/ground/pt000115.laz
p390
ssS'2575'
p391
(dp392
S'itemId'
p393
I2575
sS'start_time'
p394
S'Tue Mar 08 14:07:32 2016'
p395
sS'worker_id'
p396
S'0'
p397
sS'output_path'
p398
VE:/FeatureExtractionOutputs/pt000120.tif
p399
sS'end_time'
p400
S'Tue Mar 08 14:07:45 2016'
p401
sS'path'
p402
VE:/FeatureExtractionV4/pipelinev6/inputs/ground/pt000120.laz
p403
ssS'2572'
p404
(dp405
S'itemId'
p406
I2572
sS'start_time'
p407
S'Tue Mar 08 14:06:36 2016'
p408
sS'worker_id'
p409
S'0'
p410
sS'output_path'
p411
VE:/FeatureExtractionOutputs/pt000024.tif
p412
sS'end_time'
p413
S'Tue Mar 08 14:06:49 2016'
p414
sS'path'
p415
VE:/FeatureExtractionV4/pipelinev6/inputs/ground/pt000024.laz
p416
ssS'2573'
p417
(dp418
S'itemId'
p419
I2573
sS'start_time'
p420
S'Tue Mar 08 14:06:55 2016'
p421
sS'worker_id'
p422
S'0'
p423
sS'output_path'
p424
VE:/FeatureExtractionOutputs/pt000113.tif
p425
sS'end_time'
p426
S'Tue Mar 08 14:07:08 2016'
p427
sS'path'
p428
VE:/FeatureExtractionV4/pipelinev6/inputs/ground/pt000113.laz
p429
ssS'2570'
p430
(dp431
S'itemId'
p432
I2570
sS'start_time'
p433
S'Tue Mar 08 14:05:58 2016'
p434
sS'worker_id'
p435
S'0'
p436
sS'output_path'
p437
VE:/FeatureExtractionOutputs/pt000012.tif
p438
sS'end_time'
p439
S'Tue Mar 08 14:06:11 2016'
p440
sS'path'
p441
VE:/FeatureExtractionV4/pipelinev6/inputs/ground/pt000012.laz
p442
ssS'2571'
p443
(dp444
S'itemId'
p445
I2571
sS'start_time'
p446
S'Tue Mar 08 14:06:17 2016'
p447
sS'worker_id'
p448
S'0'
p449
sS'output_path'
p450
VE:/FeatureExtractionOutputs/pt000015.tif
p451
sS'end_time'
p452
S'Tue Mar 08 14:06:30 2016'
p453
sS'path'
p454
VE:/FeatureExtractionV4/pipelinev6/inputs/ground/pt000015.laz
p455
ssS'2576'
p456
(dp457
S'itemId'
p458
I2576
sS'start_time'
p459
S'Tue Mar 08 14:07:51 2016'
p460
sS'worker_id'
p461
S'0'
p462
sS'output_path'
p463
VE:/FeatureExtractionOutputs/pt000121.tif
p464
sS'end_time'
p465
S'Tue Mar 08 14:08:04 2016'
p466
sS'path'
p467
VE:/FeatureExtractionV4/pipelinev6/inputs/ground/pt000121.laz
p468
ssS'2539'
p469
(dp470
S'itemId'
p471
I2539
sS'start_time'
p472
S'Tue Mar 08 13:56:11 2016'
p473
sS'worker_id'
p474
S'0'
p475
sS'output_path'
p476
VE:/FeatureExtractionOutputs/pt000002.tif
p477
sS'end_time'
p478
S'Tue Mar 08 13:56:24 2016'
p479
sS'path'
p480
VE:/FeatureExtractionV4/pipelinev6/inputs/ground/pt000002.laz
p481
ssS'2563'
p482
(dp483
S'itemId'
p484
I2563
sS'start_time'
p485
S'Tue Mar 08 14:03:46 2016'
p486
sS'worker_id'
p487
S'0'
p488
sS'output_path'
p489
VE:/FeatureExtractionOutputs/pt000113.tif
p490
sS'end_time'
p491
S'Tue Mar 08 14:03:59 2016'
p492
sS'path'
p493
VE:/FeatureExtractionV4/pipelinev6/inputs/ground/pt000113.laz
p494
ss.