(dp0
S'2442'
p1
(dp2
S'itemId'
p3
I2442
sS'start_time'
p4
S'Mon Mar 07 14:40:06 2016'
p5
sS'worker_id'
p6
S'2'
p7
sS'output_path'
p8
VE:/FeatureExtractionOutputs/pt000024.tif
p9
sS'end_time'
p10
S'Mon Mar 07 14:40:19 2016'
p11
sS'path'
p12
VE:/FeatureExtractionV4/pipelinev6/inputs/ground/pt000024.laz
p13
ssS'2443'
p14
(dp15
S'itemId'
p16
I2443
sS'start_time'
p17
S'Mon Mar 07 14:40:25 2016'
p18
sS'worker_id'
p19
S'2'
p20
sS'output_path'
p21
VE:/FeatureExtractionOutputs/pt000113.tif
p22
sS'end_time'
p23
S'Mon Mar 07 14:40:38 2016'
p24
sS'path'
p25
VE:/FeatureExtractionV4/pipelinev6/inputs/ground/pt000113.laz
p26
ssS'2439'
p27
(dp28
S'itemId'
p29
I2439
sS'start_time'
p30
S'Mon Mar 07 14:39:09 2016'
p31
sS'worker_id'
p32
S'2'
p33
sS'output_path'
p34
VE:/FeatureExtractionOutputs/pt000002.tif
p35
sS'end_time'
p36
S'Mon Mar 07 14:39:22 2016'
p37
sS'path'
p38
VE:/FeatureExtractionV4/pipelinev6/inputs/ground/pt000002.laz
p39
ssS'2441'
p40
(dp41
S'itemId'
p42
I2441
sS'start_time'
p43
S'Mon Mar 07 14:39:47 2016'
p44
sS'worker_id'
p45
S'2'
p46
sS'output_path'
p47
VE:/FeatureExtractionOutputs/pt000015.tif
p48
sS'end_time'
p49
S'Mon Mar 07 14:40:00 2016'
p50
sS'path'
p51
VE:/FeatureExtractionV4/pipelinev6/inputs/ground/pt000015.laz
p52
ssS'2446'
p53
(dp54
S'itemId'
p55
I2446
sS'start_time'
p56
S'Mon Mar 07 14:41:22 2016'
p57
sS'worker_id'
p58
S'2'
p59
sS'output_path'
p60
VE:/FeatureExtractionOutputs/pt000121.tif
p61
sS'end_time'
p62
S'Mon Mar 07 14:41:35 2016'
p63
sS'path'
p64
VE:/FeatureExtractionV4/pipelinev6/inputs/ground/pt000121.laz
p65
ssS'2447'
p66
(dp67
S'itemId'
p68
I2447
sS'start_time'
p69
S'Mon Mar 07 14:41:40 2016'
p70
sS'worker_id'
p71
S'2'
p72
sS'output_path'
p73
VE:/FeatureExtractionOutputs/pt000127.tif
p74
sS'end_time'
p75
S'Mon Mar 07 14:41:53 2016'
p76
sS'path'
p77
VE:/FeatureExtractionV4/pipelinev6/inputs/ground/pt000127.laz
p78
ssS'2444'
p79
(dp80
S'itemId'
p81
I2444
sS'start_time'
p82
S'Mon Mar 07 14:40:44 2016'
p83
sS'worker_id'
p84
S'2'
p85
sS'output_path'
p86
VE:/FeatureExtractionOutputs/pt000115.tif
p87
sS'end_time'
p88
S'Mon Mar 07 14:40:57 2016'
p89
sS'path'
p90
VE:/FeatureExtractionV4/pipelinev6/inputs/ground/pt000115.laz
p91
ssS'2445'
p92
(dp93
S'itemId'
p94
I2445
sS'start_time'
p95
S'Mon Mar 07 14:41:03 2016'
p96
sS'worker_id'
p97
S'2'
p98
sS'output_path'
p99
VE:/FeatureExtractionOutputs/pt000120.tif
p100
sS'end_time'
p101
S'Mon Mar 07 14:41:16 2016'
p102
sS'path'
p103
VE:/FeatureExtractionV4/pipelinev6/inputs/ground/pt000120.laz
p104
ssS'2448'
p105
(dp106
S'itemId'
p107
I2448
sS'start_time'
p108
S'Mon Mar 07 14:41:59 2016'
p109
sS'worker_id'
p110
S'2'
p111
sS'output_path'
p112
VE:/FeatureExtractionOutputs/pt000128.tif
p113
sS'end_time'
p114
S'Mon Mar 07 14:42:12 2016'
p115
sS'path'
p116
VE:/FeatureExtractionV4/pipelinev6/inputs/ground/pt000128.laz
p117
ssS'2449'
p118
(dp119
S'itemId'
p120
I2449
sS'start_time'
p121
S'Mon Mar 07 14:43:13 2016'
p122
sS'worker_id'
p123
S'2'
p124
sS'output_path'
p125
VE:/FeatureExtractionOutputs/pt000002.tif
p126
sS'end_time'
p127
S'Mon Mar 07 14:43:26 2016'
p128
sS'path'
p129
VE:/FeatureExtractionV4/pipelinev6/inputs/ground/pt000002.laz
p130
ssS'2451'
p131
(dp132
S'itemId'
p133
I2451
sS'start_time'
p134
S'Mon Mar 07 14:43:51 2016'
p135
sS'worker_id'
p136
S'2'
p137
sS'output_path'
p138
VE:/FeatureExtractionOutputs/pt000015.tif
p139
sS'end_time'
p140
S'Mon Mar 07 14:44:04 2016'
p141
sS'path'
p142
VE:/FeatureExtractionV4/pipelinev6/inputs/ground/pt000015.laz
p143
ssS'2440'
p144
(dp145
S'itemId'
p146
I2440
sS'start_time'
p147
S'Mon Mar 07 14:39:28 2016'
p148
sS'worker_id'
p149
S'2'
p150
sS'output_path'
p151
VE:/FeatureExtractionOutputs/pt000012.tif
p152
sS'end_time'
p153
S'Mon Mar 07 14:39:41 2016'
p154
sS'path'
p155
VE:/FeatureExtractionV4/pipelinev6/inputs/ground/pt000012.laz
p156
ssS'2450'
p157
(dp158
S'itemId'
p159
I2450
sS'start_time'
p160
S'Mon Mar 07 14:43:32 2016'
p161
sS'worker_id'
p162
S'2'
p163
sS'output_path'
p164
VE:/FeatureExtractionOutputs/pt000012.tif
p165
sS'end_time'
p166
S'Mon Mar 07 14:43:45 2016'
p167
sS'path'
p168
VE:/FeatureExtractionV4/pipelinev6/inputs/ground/pt000012.laz
p169
ssS'2452'
p170
(dp171
S'itemId'
p172
I2452
sS'start_time'
p173
S'Mon Mar 07 14:44:10 2016'
p174
sS'worker_id'
p175
S'2'
p176
sS'output_path'
p177
VE:/FeatureExtractionOutputs/pt000024.tif
p178
sS'end_time'
p179
S'Mon Mar 07 14:44:23 2016'
p180
sS'path'
p181
VE:/FeatureExtractionV4/pipelinev6/inputs/ground/pt000024.laz
p182
ss.