(dp0
<<<<<<< HEAD
S'1388'
=======
S'1515'
>>>>>>> master
p1
(dp2
S'itemId'
p3
<<<<<<< HEAD
I1388
sS'start_time'
p4
S'Wed Mar 02 10:23:17 2016'
=======
I1515
sS'start_time'
p4
S'Wed Mar 02 15:48:09 2016'
>>>>>>> master
p5
sS'worker_id'
p6
S'1'
p7
sS'output_path'
p8
<<<<<<< HEAD
VC:/bertud_outputs/pt000012.tif
p9
sS'end_time'
p10
S'Wed Mar 02 10:23:30 2016'
p11
sS'path'
p12
VC:/bertud_inputs//pt000012.laz
p13
ssS'1389'
=======
VE:/FeatureExtractionOutputs/pt000120.tif
p9
sS'end_time'
p10
S'Wed Mar 02 15:48:19 2016'
p11
sS'path'
p12
VE:/FeatureExtractionV4/pipelinev6/inputs/ground/pt000120.laz
p13
ssS'1514'
>>>>>>> master
p14
(dp15
S'itemId'
p16
<<<<<<< HEAD
I1389
sS'start_time'
p17
S'Wed Mar 02 10:23:35 2016'
=======
I1514
sS'start_time'
p17
S'Wed Mar 02 15:47:53 2016'
>>>>>>> master
p18
sS'worker_id'
p19
S'1'
p20
sS'output_path'
p21
<<<<<<< HEAD
VC:/bertud_outputs/pt000015.tif
p22
sS'end_time'
p23
S'Wed Mar 02 10:23:49 2016'
p24
sS'path'
p25
VC:/bertud_inputs//pt000015.laz
p26
ssS'1396'
=======
VE:/FeatureExtractionOutputs/pt000115.tif
p22
sS'end_time'
p23
S'Wed Mar 02 15:48:03 2016'
p24
sS'path'
p25
VE:/FeatureExtractionV4/pipelinev6/inputs/ground/pt000115.laz
p26
ssS'1517'
>>>>>>> master
p27
(dp28
S'itemId'
p29
<<<<<<< HEAD
I1396
sS'start_time'
p30
S'Wed Mar 02 10:25:48 2016'
=======
I1517
sS'start_time'
p30
S'Wed Mar 02 15:48:39 2016'
>>>>>>> master
p31
sS'worker_id'
p32
S'1'
p33
sS'output_path'
p34
<<<<<<< HEAD
VC:/bertud_outputs/pt000128.tif
p35
sS'end_time'
p36
S'Wed Mar 02 10:26:01 2016'
p37
sS'path'
p38
VC:/bertud_inputs//pt000128.laz
p39
ssS'1395'
=======
VE:/FeatureExtractionOutputs/pt000127.tif
p35
sS'end_time'
p36
S'Wed Mar 02 15:48:49 2016'
p37
sS'path'
p38
VE:/FeatureExtractionV4/pipelinev6/inputs/ground/pt000127.laz
p39
ssS'1516'
>>>>>>> master
p40
(dp41
S'itemId'
p42
<<<<<<< HEAD
I1395
sS'start_time'
p43
S'Wed Mar 02 10:25:29 2016'
=======
I1516
sS'start_time'
p43
S'Wed Mar 02 15:48:24 2016'
>>>>>>> master
p44
sS'worker_id'
p45
S'1'
p46
sS'output_path'
p47
<<<<<<< HEAD
VC:/bertud_outputs/pt000127.tif
p48
sS'end_time'
p49
S'Wed Mar 02 10:25:42 2016'
p50
sS'path'
p51
VC:/bertud_inputs//pt000127.laz
p52
ssS'1394'
=======
VE:/FeatureExtractionOutputs/pt000121.tif
p48
sS'end_time'
p49
S'Wed Mar 02 15:48:34 2016'
p50
sS'path'
p51
VE:/FeatureExtractionV4/pipelinev6/inputs/ground/pt000121.laz
p52
ssS'1511'
>>>>>>> master
p53
(dp54
S'itemId'
p55
<<<<<<< HEAD
I1394
sS'start_time'
p56
S'Wed Mar 02 10:25:10 2016'
=======
I1511
sS'start_time'
p56
S'Wed Mar 02 15:47:23 2016'
>>>>>>> master
p57
sS'worker_id'
p58
S'1'
p59
sS'output_path'
p60
<<<<<<< HEAD
VC:/bertud_outputs/pt000121.tif
p61
sS'end_time'
p62
S'Wed Mar 02 10:25:23 2016'
p63
sS'path'
p64
VC:/bertud_inputs//pt000121.laz
p65
ssS'1393'
=======
VE:/FeatureExtractionOutputs/pt000015.tif
p61
sS'end_time'
p62
S'Wed Mar 02 15:47:33 2016'
p63
sS'path'
p64
VE:/FeatureExtractionV4/pipelinev6/inputs/ground/pt000015.laz
p65
ssS'1510'
>>>>>>> master
p66
(dp67
S'itemId'
p68
<<<<<<< HEAD
I1393
sS'start_time'
p69
S'Wed Mar 02 10:24:51 2016'
=======
I1510
sS'start_time'
p69
S'Wed Mar 02 15:47:07 2016'
>>>>>>> master
p70
sS'worker_id'
p71
S'1'
p72
sS'output_path'
p73
<<<<<<< HEAD
VC:/bertud_outputs/pt000120.tif
p74
sS'end_time'
p75
S'Wed Mar 02 10:25:04 2016'
p76
sS'path'
p77
VC:/bertud_inputs//pt000120.laz
p78
ssS'1392'
=======
VE:/FeatureExtractionOutputs/pt000012.tif
p74
sS'end_time'
p75
S'Wed Mar 02 15:47:17 2016'
p76
sS'path'
p77
VE:/FeatureExtractionV4/pipelinev6/inputs/ground/pt000012.laz
p78
ssS'1513'
>>>>>>> master
p79
(dp80
S'itemId'
p81
<<<<<<< HEAD
I1392
sS'start_time'
p82
S'Wed Mar 02 10:24:32 2016'
=======
I1513
sS'start_time'
p82
S'Wed Mar 02 15:47:38 2016'
>>>>>>> master
p83
sS'worker_id'
p84
S'1'
p85
sS'output_path'
p86
<<<<<<< HEAD
VC:/bertud_outputs/pt000115.tif
p87
sS'end_time'
p88
S'Wed Mar 02 10:24:45 2016'
p89
sS'path'
p90
VC:/bertud_inputs//pt000115.laz
p91
ssS'1391'
p92
(dp93
S'itemId'
p94
I1391
sS'start_time'
p95
S'Wed Mar 02 10:24:13 2016'
p96
sS'worker_id'
p97
S'1'
p98
sS'output_path'
p99
VC:/bertud_outputs/pt000113.tif
p100
sS'end_time'
p101
S'Wed Mar 02 10:24:27 2016'
p102
sS'path'
p103
VC:/bertud_inputs//pt000113.laz
p104
ssS'1390'
p105
(dp106
S'itemId'
p107
I1390
sS'start_time'
p108
S'Wed Mar 02 10:23:54 2016'
p109
sS'worker_id'
p110
S'1'
p111
sS'output_path'
p112
VC:/bertud_outputs/pt000024.tif
p113
sS'end_time'
p114
S'Wed Mar 02 10:24:08 2016'
p115
sS'path'
p116
VC:/bertud_inputs//pt000024.laz
p117
=======
VE:/FeatureExtractionOutputs/pt000113.tif
p87
sS'end_time'
p88
S'Wed Mar 02 15:47:48 2016'
p89
sS'path'
p90
VE:/FeatureExtractionV4/pipelinev6/inputs/ground/pt000113.laz
p91
>>>>>>> master
ss.