(dp0
S'1164'
p1
ccopy_reg
_reconstructor
p2
(cworkitem
Workitem
p3
c__builtin__
object
p4
Ntp5
Rp6
(dp7
S'itemId'
p8
I1164
sS'start_time'
p9
NsS'worker_id'
p10
NsS'output_path'
p11
VE:/FeatureExtractionOutputs/pt000012.tif
p12
sS'end_time'
p13
NsS'path'
p14
VE:/FeatureExtractionV4/pipelinev6/inputs/ground/pt000012.laz
p15
sbsS'1165'
p16
g2
(g3
g4
Ntp17
Rp18
(dp19
g8
I1165
sg9
Nsg10
Nsg11
VE:/FeatureExtractionOutputs/pt000015.tif
p20
sg13
Nsg14
VE:/FeatureExtractionV4/pipelinev6/inputs/ground/pt000015.laz
p21
sbsS'1166'
p22
g2
(g3
g4
Ntp23
Rp24
(dp25
g8
I1166
sg9
Nsg10
Nsg11
VE:/FeatureExtractionOutputs/pt000024.tif
p26
sg13
Nsg14
VE:/FeatureExtractionV4/pipelinev6/inputs/ground/pt000024.laz
p27
sbsS'1167'
p28
g2
(g3
g4
Ntp29
Rp30
(dp31
g8
I1167
sg9
Nsg10
Nsg11
VE:/FeatureExtractionOutputs/pt000113.tif
p32
sg13
Nsg14
VE:/FeatureExtractionV4/pipelinev6/inputs/ground/pt000113.laz
p33
sbsS'1172'
p34
g2
(g3
g4
Ntp35
Rp36
(dp37
g8
I1172
sg9
Nsg10
Nsg11
VE:/FeatureExtractionOutputs/pt000128.tif
p38
sg13
Nsg14
VE:/FeatureExtractionV4/pipelinev6/inputs/ground/pt000128.laz
p39
sbsS'1171'
p40
g2
(g3
g4
Ntp41
Rp42
(dp43
g8
I1171
sg9
Nsg10
Nsg11
VE:/FeatureExtractionOutputs/pt000127.tif
p44
sg13
Nsg14
VE:/FeatureExtractionV4/pipelinev6/inputs/ground/pt000127.laz
p45
sbsS'1170'
p46
g2
(g3
g4
Ntp47
Rp48
(dp49
g8
I1170
sg9
Nsg10
Nsg11
VE:/FeatureExtractionOutputs/pt000121.tif
p50
sg13
Nsg14
VE:/FeatureExtractionV4/pipelinev6/inputs/ground/pt000121.laz
p51
sbsS'1163'
p52
g2
(g3
g4
Ntp53
Rp54
(dp55
g8
I1163
sg9
Nsg10
Nsg11
VE:/FeatureExtractionOutputs/pt000002.tif
p56
sg13
Nsg14
VE:/FeatureExtractionV4/pipelinev6/inputs/ground/pt000002.laz
p57
sbsS'1168'
p58
g2
(g3
g4
Ntp59
Rp60
(dp61
g8
I1168
sg9
Nsg10
Nsg11
VE:/FeatureExtractionOutputs/pt000115.tif
p62
sg13
Nsg14
VE:/FeatureExtractionV4/pipelinev6/inputs/ground/pt000115.laz
p63
sbsS'1169'
p64
g2
(g3
g4
Ntp65
Rp66
(dp67
g8
I1169
sg9
Nsg10
Nsg11
VE:/FeatureExtractionOutputs/pt000120.tif
p68
sg13
Nsg14
VE:/FeatureExtractionV4/pipelinev6/inputs/ground/pt000120.laz
p69
sbs.