(dp0
S'1387'
p1
ccopy_reg
_reconstructor
p2
(cworkitem
Workitem
p3
c__builtin__
object
p4
Ntp5
Rp6
(dp7
S'itemId'
p8
I1387
sS'start_time'
p9
NsS'worker_id'
p10
NsS'output_path'
p11
VC:/bertud_outputs/pt000002.tif
p12
sS'end_time'
p13
NsS'path'
p14
VC:/bertud_inputs//pt000002.laz
p15
sbs.