(dp0
S'2852'
p1
ccopy_reg
_reconstructor
p2
(cworkitem
Workitem
p3
c__builtin__
object
p4
Ntp5
Rp6
(dp7
S'itemId'
p8
I2852
sS'start_time'
p9
NsS'worker_id'
p10
NsS'output_path'
p11
VE:\u005cFeatureExtraction_Agsalin\u005cOutputs_Mindoro_Blk28Bs/pt000085.tif
p12
sS'end_time'
p13
NsS'path'
p14
VE:/FeatureExtraction_Agsalin/LAZ_Mindoro_Blk28Bs/pt000085.laz
p15
sS'error_msg'
p16
S''
p17
sbsS'2848'
p18
g2
(g3
g4
Ntp19
Rp20
(dp21
g8
I2848
sg9
Nsg10
Nsg11
VE:\u005cFeatureExtraction_Agsalin\u005cOutputs_Mindoro_Blk28Bs/pt000074.tif
p22
sg13
Nsg14
VE:/FeatureExtraction_Agsalin/LAZ_Mindoro_Blk28Bs/pt000074.laz
p23
sg16
g17
sbsS'2849'
p24
g2
(g3
g4
Ntp25
Rp26
(dp27
g8
I2849
sg9
Nsg10
Nsg11
VE:\u005cFeatureExtraction_Agsalin\u005cOutputs_Mindoro_Blk28Bs/pt000075.tif
p28
sg13
Nsg14
VE:/FeatureExtraction_Agsalin/LAZ_Mindoro_Blk28Bs/pt000075.laz
p29
sg16
g17
sbsS'2846'
p30
g2
(g3
g4
Ntp31
Rp32
(dp33
g8
I2846
sg9
Nsg10
Nsg11
VE:\u005cFeatureExtraction_Agsalin\u005cOutputs_Mindoro_Blk28Bs/pt000072.tif
p34
sg13
Nsg14
VE:/FeatureExtraction_Agsalin/LAZ_Mindoro_Blk28Bs/pt000072.laz
p35
sg16
g17
sbsS'2847'
p36
g2
(g3
g4
Ntp37
Rp38
(dp39
g8
I2847
sg9
Nsg10
Nsg11
VE:\u005cFeatureExtraction_Agsalin\u005cOutputs_Mindoro_Blk28Bs/pt000073.tif
p40
sg13
Nsg14
VE:/FeatureExtraction_Agsalin/LAZ_Mindoro_Blk28Bs/pt000073.laz
p41
sg16
g17
sbsS'2853'
p42
g2
(g3
g4
Ntp43
Rp44
(dp45
g8
I2853
sg9
Nsg10
Nsg11
VE:\u005cFeatureExtraction_Agsalin\u005cOutputs_Mindoro_Blk28Bs/pt000088.tif
p46
sg13
Nsg14
VE:/FeatureExtraction_Agsalin/LAZ_Mindoro_Blk28Bs/pt000088.laz
p47
sg16
g17
sbsS'2845'
p48
g2
(g3
g4
Ntp49
Rp50
(dp51
g8
I2845
sg9
Nsg10
Nsg11
VE:\u005cFeatureExtraction_Agsalin\u005cOutputs_Mindoro_Blk28Bs/pt000071.tif
p52
sg13
Nsg14
VE:/FeatureExtraction_Agsalin/LAZ_Mindoro_Blk28Bs/pt000071.laz
p53
sg16
g17
sbsS'2855'
p54
g2
(g3
g4
Ntp55
Rp56
(dp57
g8
I2855
sg9
Nsg10
Nsg11
VE:\u005cFeatureExtraction_Agsalin\u005cOutputs_Mindoro_Blk28Bs/pt000090.tif
p58
sg13
Nsg14
VE:/FeatureExtraction_Agsalin/LAZ_Mindoro_Blk28Bs/pt000090.laz
p59
sg16
g17
sbsS'2854'
p60
g2
(g3
g4
Ntp61
Rp62
(dp63
g8
I2854
sg9
Nsg10
Nsg11
VE:\u005cFeatureExtraction_Agsalin\u005cOutputs_Mindoro_Blk28Bs/pt000089.tif
p64
sg13
Nsg14
VE:/FeatureExtraction_Agsalin/LAZ_Mindoro_Blk28Bs/pt000089.laz
p65
sg16
g17
sbsS'2851'
p66
g2
(g3
g4
Ntp67
Rp68
(dp69
g8
I2851
sg9
Nsg10
Nsg11
VE:\u005cFeatureExtraction_Agsalin\u005cOutputs_Mindoro_Blk28Bs/pt000084.tif
p70
sg13
Nsg14
VE:/FeatureExtraction_Agsalin/LAZ_Mindoro_Blk28Bs/pt000084.laz
p71
sg16
g17
sbsS'2850'
p72
g2
(g3
g4
Ntp73
Rp74
(dp75
g8
I2850
sg9
Nsg10
Nsg11
VE:\u005cFeatureExtraction_Agsalin\u005cOutputs_Mindoro_Blk28Bs/pt000083.tif
p76
sg13
Nsg14
VE:/FeatureExtraction_Agsalin/LAZ_Mindoro_Blk28Bs/pt000083.laz
p77
sg16
g17
sbsS'2821'
p78
g2
(g3
g4
Ntp79
Rp80
(dp81
g8
I2821
sg9
Nsg10
Nsg11
VE:\u005cFeatureExtraction_Agsalin\u005cOutputs_Mindoro_Blk28Bs/pt000033.tif
p82
sg13
Nsg14
VE:/FeatureExtraction_Agsalin/LAZ_Mindoro_Blk28Bs/pt000033.laz
p83
sg16
g17
sbsS'2823'
p84
g2
(g3
g4
Ntp85
Rp86
(dp87
g8
I2823
sg9
Nsg10
Nsg11
VE:\u005cFeatureExtraction_Agsalin\u005cOutputs_Mindoro_Blk28Bs/pt000035.tif
p88
sg13
Nsg14
VE:/FeatureExtraction_Agsalin/LAZ_Mindoro_Blk28Bs/pt000035.laz
p89
sg16
g17
sbs.