(dp0
S'1427'
p1
ccopy_reg
_reconstructor
p2
(cworkitem
Workitem
p3
c__builtin__
object
p4
Ntp5
Rp6
(dp7
S'itemId'
p8
I1427
sS'start_time'
p9
NsS'worker_id'
p10
NsS'output_path'
p11
VC:/bertud_outputs//pt000002.tif
p12
sS'end_time'
p13
NsS'path'
p14
VC:/bertud_inputs//pt000002.laz
p15
sbsS'1461'
p16
g2
(g3
g4
Ntp17
Rp18
(dp19
g8
I1461
sg9
Nsg10
Nsg11
VC:/bertud_outputs//pt000120.tif
p20
sg13
Nsg14
VC:/bertud_inputs//pt000120.laz
p21
sbsS'1460'
p22
g2
(g3
g4
Ntp23
Rp24
(dp25
g8
I1460
sg9
Nsg10
Nsg11
VC:/bertud_outputs//pt000115.tif
p26
sg13
Nsg14
VC:/bertud_inputs//pt000115.laz
p27
sbsS'1457'
p28
g2
(g3
g4
Ntp29
Rp30
(dp31
g8
I1457
sg9
Nsg10
Nsg11
VC:/bertud_outputs//pt000015.tif
p32
sg13
Nsg14
VC:/bertud_inputs//pt000015.laz
p33
sbsS'1464'
p34
g2
(g3
g4
Ntp35
Rp36
(dp37
g8
I1464
sg9
Nsg10
Nsg11
VC:/bertud_outputs//pt000128.tif
p38
sg13
Nsg14
VC:/bertud_inputs//pt000128.laz
p39
sbsS'1458'
p40
g2
(g3
g4
Ntp41
Rp42
(dp43
g8
I1458
sg9
Nsg10
Nsg11
VC:/bertud_outputs//pt000024.tif
p44
sg13
Nsg14
VC:/bertud_inputs//pt000024.laz
p45
sbsS'1459'
p46
g2
(g3
g4
Ntp47
Rp48
(dp49
g8
I1459
sg9
Nsg10
Nsg11
VC:/bertud_outputs//pt000113.tif
p50
sg13
Nsg14
VC:/bertud_inputs//pt000113.laz
p51
sbsS'1463'
p52
g2
(g3
g4
Ntp53
Rp54
(dp55
g8
I1463
sg9
Nsg10
Nsg11
VC:/bertud_outputs//pt000127.tif
p56
sg13
Nsg14
VC:/bertud_inputs//pt000127.laz
p57
sbsS'1462'
p58
g2
(g3
g4
Ntp59
Rp60
(dp61
g8
I1462
sg9
Nsg10
Nsg11
VC:/bertud_outputs//pt000121.tif
p62
sg13
Nsg14
VC:/bertud_inputs//pt000121.laz
p63
sbs.