(dp0
S'3827'
p1
ccopy_reg
_reconstructor
p2
(cworkitem
Workitem
p3
c__builtin__
object
p4
Ntp5
Rp6
(dp7
S'itemId'
p8
I3827
sS'start_time'
p9
NsS'worker_id'
p10
NsS'output_path'
p11
VE:\u005cFeatureExtraction_PagsanjanV2\u005cOutputs_Blk18H/pt000014.tif
p12
sS'end_time'
p13
NsS'path'
p14
VE:\u005cFeatureExtraction_PagsanjanV2\u005cLAZ_Laguna_Blk18H\u005cBatch2/pt000014.laz
p15
sS'error_msg'
p16
S''
p17
sbsS'3826'
p18
g2
(g3
g4
Ntp19
Rp20
(dp21
g8
I3826
sg9
Nsg10
Nsg11
VE:\u005cFeatureExtraction_PagsanjanV2\u005cOutputs_Blk18H/pt000013.tif
p22
sg13
Nsg14
VE:\u005cFeatureExtraction_PagsanjanV2\u005cLAZ_Laguna_Blk18H\u005cBatch2/pt000013.laz
p23
sg16
g17
sbsS'3825'
p24
g2
(g3
g4
Ntp25
Rp26
(dp27
g8
I3825
sg9
Nsg10
Nsg11
VE:\u005cFeatureExtraction_PagsanjanV2\u005cOutputs_Blk18H/pt000012.tif
p28
sg13
Nsg14
VE:\u005cFeatureExtraction_PagsanjanV2\u005cLAZ_Laguna_Blk18H\u005cBatch2/pt000012.laz
p29
sg16
g17
sbsS'3824'
p30
g2
(g3
g4
Ntp31
Rp32
(dp33
g8
I3824
sg9
Nsg10
Nsg11
VE:\u005cFeatureExtraction_PagsanjanV2\u005cOutputs_Blk18H/pt000011.tif
p34
sg13
Nsg14
VE:\u005cFeatureExtraction_PagsanjanV2\u005cLAZ_Laguna_Blk18H\u005cBatch2/pt000011.laz
p35
sg16
g17
sbsS'3823'
p36
g2
(g3
g4
Ntp37
Rp38
(dp39
g8
I3823
sg9
Nsg10
Nsg11
VE:\u005cFeatureExtraction_PagsanjanV2\u005cOutputs_Blk18H/pt000010.tif
p40
sg13
Nsg14
VE:\u005cFeatureExtraction_PagsanjanV2\u005cLAZ_Laguna_Blk18H\u005cBatch1/pt000010.laz
p41
sg16
g17
sbsS'3822'
p42
g2
(g3
g4
Ntp43
Rp44
(dp45
g8
I3822
sg9
Nsg10
Nsg11
VE:\u005cFeatureExtraction_PagsanjanV2\u005cOutputs_Blk18H/pt000009.tif
p46
sg13
Nsg14
VE:\u005cFeatureExtraction_PagsanjanV2\u005cLAZ_Laguna_Blk18H\u005cBatch1/pt000009.laz
p47
sg16
g17
sbsS'3832'
p48
g2
(g3
g4
Ntp49
Rp50
(dp51
g8
I3832
sg9
Nsg10
Nsg11
VE:\u005cFeatureExtraction_PagsanjanV2\u005cOutputs_Blk18H/pt000019.tif
p52
sg13
Nsg14
VE:\u005cFeatureExtraction_PagsanjanV2\u005cLAZ_Laguna_Blk18H\u005cBatch2/pt000019.laz
p53
sg16
g17
sbsS'3815'
p54
g2
(g3
g4
Ntp55
Rp56
(dp57
g8
I3815
sg9
Nsg10
Nsg11
VE:\u005cFeatureExtraction_PagsanjanV2\u005cOutputs_Blk18H/pt000002.tif
p58
sg13
Nsg14
VE:\u005cFeatureExtraction_PagsanjanV2\u005cLAZ_Laguna_Blk18H\u005cBatch1/pt000002.laz
p59
sg16
g17
sbsS'3833'
p60
g2
(g3
g4
Ntp61
Rp62
(dp63
g8
I3833
sg9
Nsg10
Nsg11
VE:\u005cFeatureExtraction_PagsanjanV2\u005cOutputs_Blk18H/pt000020.tif
p64
sg13
Nsg14
VE:\u005cFeatureExtraction_PagsanjanV2\u005cLAZ_Laguna_Blk18H\u005cBatch2/pt000020.laz
p65
sg16
g17
sbsS'3829'
p66
g2
(g3
g4
Ntp67
Rp68
(dp69
g8
I3829
sg9
Nsg10
Nsg11
VE:\u005cFeatureExtraction_PagsanjanV2\u005cOutputs_Blk18H/pt000016.tif
p70
sg13
Nsg14
VE:\u005cFeatureExtraction_PagsanjanV2\u005cLAZ_Laguna_Blk18H\u005cBatch2/pt000016.laz
p71
sg16
g17
sbsS'3828'
p72
g2
(g3
g4
Ntp73
Rp74
(dp75
g8
I3828
sg9
Nsg10
Nsg11
VE:\u005cFeatureExtraction_PagsanjanV2\u005cOutputs_Blk18H/pt000015.tif
p76
sg13
Nsg14
VE:\u005cFeatureExtraction_PagsanjanV2\u005cLAZ_Laguna_Blk18H\u005cBatch2/pt000015.laz
p77
sg16
g17
sbsS'3817'
p78
g2
(g3
g4
Ntp79
Rp80
(dp81
g8
I3817
sg9
Nsg10
Nsg11
VE:\u005cFeatureExtraction_PagsanjanV2\u005cOutputs_Blk18H/pt000004.tif
p82
sg13
Nsg14
VE:\u005cFeatureExtraction_PagsanjanV2\u005cLAZ_Laguna_Blk18H\u005cBatch1/pt000004.laz
p83
sg16
g17
sbsS'3830'
p84
g2
(g3
g4
Ntp85
Rp86
(dp87
g8
I3830
sg9
Nsg10
Nsg11
VE:\u005cFeatureExtraction_PagsanjanV2\u005cOutputs_Blk18H/pt000017.tif
p88
sg13
Nsg14
VE:\u005cFeatureExtraction_PagsanjanV2\u005cLAZ_Laguna_Blk18H\u005cBatch2/pt000017.laz
p89
sg16
g17
sbsS'3831'
p90
g2
(g3
g4
Ntp91
Rp92
(dp93
g8
I3831
sg9
Nsg10
Nsg11
VE:\u005cFeatureExtraction_PagsanjanV2\u005cOutputs_Blk18H/pt000018.tif
p94
sg13
Nsg14
VE:\u005cFeatureExtraction_PagsanjanV2\u005cLAZ_Laguna_Blk18H\u005cBatch2/pt000018.laz
p95
sg16
g17
sbs.