(dp0
S'1270'
p1
ccopy_reg
_reconstructor
p2
(cworkitem
Workitem
p3
c__builtin__
object
p4
Ntp5
Rp6
(dp7
S'itemId'
p8
I1270
sS'start_time'
p9
NsS'worker_id'
p10
NsS'output_path'
p11
VE:/FeatureExtractionOutputs/pt000121.tif
p12
sS'end_time'
p13
NsS'path'
p14
VE:/FeatureExtractionV4/pipelinev6/inputs/ground/pt000121.laz
p15
sbsS'1271'
p16
g2
(g3
g4
Ntp17
Rp18
(dp19
g8
I1271
sg9
Nsg10
Nsg11
VE:/FeatureExtractionOutputs/pt000127.tif
p20
sg13
Nsg14
VE:/FeatureExtractionV4/pipelinev6/inputs/ground/pt000127.laz
p21
sbsS'1272'
p22
g2
(g3
g4
Ntp23
Rp24
(dp25
g8
I1272
sg9
Nsg10
Nsg11
VE:/FeatureExtractionOutputs/pt000128.tif
p26
sg13
Nsg14
VE:/FeatureExtractionV4/pipelinev6/inputs/ground/pt000128.laz
p27
sbs.