(dp0
S'2464'
p1
ccopy_reg
_reconstructor
p2
(cworkitem
Workitem
p3
c__builtin__
object
p4
Ntp5
Rp6
(dp7
S'itemId'
p8
I2464
sS'start_time'
p9
NsS'worker_id'
p10
NsS'output_path'
p11
VE:/FeatureExtractionOutputs/pt000115.tif
p12
sS'end_time'
p13
NsS'path'
p14
VE:/FeatureExtractionV4/pipelinev6/inputs/ground/pt000115.laz
p15
sbsS'2465'
p16
g2
(g3
g4
Ntp17
Rp18
(dp19
g8
I2465
sg9
Nsg10
Nsg11
VE:/FeatureExtractionOutputs/pt000120.tif
p20
sg13
Nsg14
VE:/FeatureExtractionV4/pipelinev6/inputs/ground/pt000120.laz
p21
sbsS'2466'
p22
g2
(g3
g4
Ntp23
Rp24
(dp25
g8
I2466
sg9
Nsg10
Nsg11
VE:/FeatureExtractionOutputs/pt000121.tif
p26
sg13
Nsg14
VE:/FeatureExtractionV4/pipelinev6/inputs/ground/pt000121.laz
p27
sbsS'2467'
p28
g2
(g3
g4
Ntp29
Rp30
(dp31
g8
I2467
sg9
Nsg10
Nsg11
VE:/FeatureExtractionOutputs/pt000127.tif
p32
sg13
Nsg14
VE:/FeatureExtractionV4/pipelinev6/inputs/ground/pt000127.laz
p33
sbsS'2459'
p34
g2
(g3
g4
Ntp35
Rp36
(dp37
g8
I2459
sg9
Nsg10
Nsg11
VE:/FeatureExtractionOutputs/pt000002.tif
p38
sg13
Nsg14
VE:/FeatureExtractionV4/pipelinev6/inputs/ground/pt000002.laz
p39
sbsS'2458'
p40
g2
(g3
g4
Ntp41
Rp42
(dp43
g8
I2458
sg9
Nsg10
Nsg11
VE:/FeatureExtractionOutputs/pt000128.tif
p44
sg13
Nsg14
VE:/FeatureExtractionV4/pipelinev6/inputs/ground/pt000128.laz
p45
sbsS'2462'
p46
g2
(g3
g4
Ntp47
Rp48
(dp49
g8
I2462
sg9
Nsg10
Nsg11
VE:/FeatureExtractionOutputs/pt000024.tif
p50
sg13
Nsg14
VE:/FeatureExtractionV4/pipelinev6/inputs/ground/pt000024.laz
p51
sbsS'2463'
p52
g2
(g3
g4
Ntp53
Rp54
(dp55
g8
I2463
sg9
Nsg10
Nsg11
VE:/FeatureExtractionOutputs/pt000113.tif
p56
sg13
Nsg14
VE:/FeatureExtractionV4/pipelinev6/inputs/ground/pt000113.laz
p57
sbsS'2455'
p58
g2
(g3
g4
Ntp59
Rp60
(dp61
g8
I2455
sg9
Nsg10
Nsg11
VE:/FeatureExtractionOutputs/pt000120.tif
p62
sg13
Nsg14
VE:/FeatureExtractionV4/pipelinev6/inputs/ground/pt000120.laz
p63
sbsS'2454'
p64
g2
(g3
g4
Ntp65
Rp66
(dp67
g8
I2454
sg9
Nsg10
Nsg11
VE:/FeatureExtractionOutputs/pt000115.tif
p68
sg13
Nsg14
VE:/FeatureExtractionV4/pipelinev6/inputs/ground/pt000115.laz
p69
sbsS'2457'
p70
g2
(g3
g4
Ntp71
Rp72
(dp73
g8
I2457
sg9
Nsg10
Nsg11
VE:/FeatureExtractionOutputs/pt000127.tif
p74
sg13
Nsg14
VE:/FeatureExtractionV4/pipelinev6/inputs/ground/pt000127.laz
p75
sbsS'2456'
p76
g2
(g3
g4
Ntp77
Rp78
(dp79
g8
I2456
sg9
Nsg10
Nsg11
VE:/FeatureExtractionOutputs/pt000121.tif
p80
sg13
Nsg14
VE:/FeatureExtractionV4/pipelinev6/inputs/ground/pt000121.laz
p81
sbsS'2468'
p82
g2
(g3
g4
Ntp83
Rp84
(dp85
g8
I2468
sg9
Nsg10
Nsg11
VE:/FeatureExtractionOutputs/pt000128.tif
p86
sg13
Nsg14
VE:/FeatureExtractionV4/pipelinev6/inputs/ground/pt000128.laz
p87
sbsS'2453'
p88
g2
(g3
g4
Ntp89
Rp90
(dp91
g8
I2453
sg9
Nsg10
Nsg11
VE:/FeatureExtractionOutputs/pt000113.tif
p92
sg13
Nsg14
VE:/FeatureExtractionV4/pipelinev6/inputs/ground/pt000113.laz
p93
sbsS'2460'
p94
g2
(g3
g4
Ntp95
Rp96
(dp97
g8
I2460
sg9
Nsg10
Nsg11
VE:/FeatureExtractionOutputs/pt000012.tif
p98
sg13
Nsg14
VE:/FeatureExtractionV4/pipelinev6/inputs/ground/pt000012.laz
p99
sbsS'2461'
p100
g2
(g3
g4
Ntp101
Rp102
(dp103
g8
I2461
sg9
Nsg10
Nsg11
VE:/FeatureExtractionOutputs/pt000015.tif
p104
sg13
Nsg14
VE:/FeatureExtractionV4/pipelinev6/inputs/ground/pt000015.laz
p105
sbs.